
bomb:     file format elf64-x86-64


Disassembly of section .init:

0000000000400be0 <_init>:
  400be0:	48 83 ec 08          	sub    $0x8,%rsp
  400be4:	48 8b 05 0d 34 20 00 	mov    0x20340d(%rip),%rax        # 603ff8 <_DYNAMIC+0x1d0>
  400beb:	48 85 c0             	test   %rax,%rax
  400bee:	74 05                	je     400bf5 <_init+0x15>
  400bf0:	e8 1b 02 00 00       	callq  400e10 <socket@plt+0x10>
  400bf5:	48 83 c4 08          	add    $0x8,%rsp
  400bf9:	c3                   	retq   

Disassembly of section .plt:

0000000000400c00 <getenv@plt-0x10>:
  400c00:	ff 35 02 34 20 00    	pushq  0x203402(%rip)        # 604008 <_GLOBAL_OFFSET_TABLE_+0x8>
  400c06:	ff 25 04 34 20 00    	jmpq   *0x203404(%rip)        # 604010 <_GLOBAL_OFFSET_TABLE_+0x10>
  400c0c:	0f 1f 40 00          	nopl   0x0(%rax)

0000000000400c10 <getenv@plt>:
  400c10:	ff 25 02 34 20 00    	jmpq   *0x203402(%rip)        # 604018 <_GLOBAL_OFFSET_TABLE_+0x18>
  400c16:	68 00 00 00 00       	pushq  $0x0
  400c1b:	e9 e0 ff ff ff       	jmpq   400c00 <_init+0x20>

0000000000400c20 <strcasecmp@plt>:
  400c20:	ff 25 fa 33 20 00    	jmpq   *0x2033fa(%rip)        # 604020 <_GLOBAL_OFFSET_TABLE_+0x20>
  400c26:	68 01 00 00 00       	pushq  $0x1
  400c2b:	e9 d0 ff ff ff       	jmpq   400c00 <_init+0x20>

0000000000400c30 <__errno_location@plt>:
  400c30:	ff 25 f2 33 20 00    	jmpq   *0x2033f2(%rip)        # 604028 <_GLOBAL_OFFSET_TABLE_+0x28>
  400c36:	68 02 00 00 00       	pushq  $0x2
  400c3b:	e9 c0 ff ff ff       	jmpq   400c00 <_init+0x20>

0000000000400c40 <strcpy@plt>:
  400c40:	ff 25 ea 33 20 00    	jmpq   *0x2033ea(%rip)        # 604030 <_GLOBAL_OFFSET_TABLE_+0x30>
  400c46:	68 03 00 00 00       	pushq  $0x3
  400c4b:	e9 b0 ff ff ff       	jmpq   400c00 <_init+0x20>

0000000000400c50 <puts@plt>:
  400c50:	ff 25 e2 33 20 00    	jmpq   *0x2033e2(%rip)        # 604038 <_GLOBAL_OFFSET_TABLE_+0x38>
  400c56:	68 04 00 00 00       	pushq  $0x4
  400c5b:	e9 a0 ff ff ff       	jmpq   400c00 <_init+0x20>

0000000000400c60 <write@plt>:
  400c60:	ff 25 da 33 20 00    	jmpq   *0x2033da(%rip)        # 604040 <_GLOBAL_OFFSET_TABLE_+0x40>
  400c66:	68 05 00 00 00       	pushq  $0x5
  400c6b:	e9 90 ff ff ff       	jmpq   400c00 <_init+0x20>

0000000000400c70 <getdomainname@plt>:
  400c70:	ff 25 d2 33 20 00    	jmpq   *0x2033d2(%rip)        # 604048 <_GLOBAL_OFFSET_TABLE_+0x48>
  400c76:	68 06 00 00 00       	pushq  $0x6
  400c7b:	e9 80 ff ff ff       	jmpq   400c00 <_init+0x20>

0000000000400c80 <__stack_chk_fail@plt>:
  400c80:	ff 25 ca 33 20 00    	jmpq   *0x2033ca(%rip)        # 604050 <_GLOBAL_OFFSET_TABLE_+0x50>
  400c86:	68 07 00 00 00       	pushq  $0x7
  400c8b:	e9 70 ff ff ff       	jmpq   400c00 <_init+0x20>

0000000000400c90 <alarm@plt>:
  400c90:	ff 25 c2 33 20 00    	jmpq   *0x2033c2(%rip)        # 604058 <_GLOBAL_OFFSET_TABLE_+0x58>
  400c96:	68 08 00 00 00       	pushq  $0x8
  400c9b:	e9 60 ff ff ff       	jmpq   400c00 <_init+0x20>

0000000000400ca0 <close@plt>:
  400ca0:	ff 25 ba 33 20 00    	jmpq   *0x2033ba(%rip)        # 604060 <_GLOBAL_OFFSET_TABLE_+0x60>
  400ca6:	68 09 00 00 00       	pushq  $0x9
  400cab:	e9 50 ff ff ff       	jmpq   400c00 <_init+0x20>

0000000000400cb0 <read@plt>:
  400cb0:	ff 25 b2 33 20 00    	jmpq   *0x2033b2(%rip)        # 604068 <_GLOBAL_OFFSET_TABLE_+0x68>
  400cb6:	68 0a 00 00 00       	pushq  $0xa
  400cbb:	e9 40 ff ff ff       	jmpq   400c00 <_init+0x20>

0000000000400cc0 <__libc_start_main@plt>:
  400cc0:	ff 25 aa 33 20 00    	jmpq   *0x2033aa(%rip)        # 604070 <_GLOBAL_OFFSET_TABLE_+0x70>
  400cc6:	68 0b 00 00 00       	pushq  $0xb
  400ccb:	e9 30 ff ff ff       	jmpq   400c00 <_init+0x20>

0000000000400cd0 <srand@plt>:
  400cd0:	ff 25 a2 33 20 00    	jmpq   *0x2033a2(%rip)        # 604078 <_GLOBAL_OFFSET_TABLE_+0x78>
  400cd6:	68 0c 00 00 00       	pushq  $0xc
  400cdb:	e9 20 ff ff ff       	jmpq   400c00 <_init+0x20>

0000000000400ce0 <fgets@plt>:
  400ce0:	ff 25 9a 33 20 00    	jmpq   *0x20339a(%rip)        # 604080 <_GLOBAL_OFFSET_TABLE_+0x80>
  400ce6:	68 0d 00 00 00       	pushq  $0xd
  400ceb:	e9 10 ff ff ff       	jmpq   400c00 <_init+0x20>

0000000000400cf0 <signal@plt>:
  400cf0:	ff 25 92 33 20 00    	jmpq   *0x203392(%rip)        # 604088 <_GLOBAL_OFFSET_TABLE_+0x88>
  400cf6:	68 0e 00 00 00       	pushq  $0xe
  400cfb:	e9 00 ff ff ff       	jmpq   400c00 <_init+0x20>

0000000000400d00 <gethostbyname@plt>:
  400d00:	ff 25 8a 33 20 00    	jmpq   *0x20338a(%rip)        # 604090 <_GLOBAL_OFFSET_TABLE_+0x90>
  400d06:	68 0f 00 00 00       	pushq  $0xf
  400d0b:	e9 f0 fe ff ff       	jmpq   400c00 <_init+0x20>

0000000000400d10 <__memmove_chk@plt>:
  400d10:	ff 25 82 33 20 00    	jmpq   *0x203382(%rip)        # 604098 <_GLOBAL_OFFSET_TABLE_+0x98>
  400d16:	68 10 00 00 00       	pushq  $0x10
  400d1b:	e9 e0 fe ff ff       	jmpq   400c00 <_init+0x20>

0000000000400d20 <strtol@plt>:
  400d20:	ff 25 7a 33 20 00    	jmpq   *0x20337a(%rip)        # 6040a0 <_GLOBAL_OFFSET_TABLE_+0xa0>
  400d26:	68 11 00 00 00       	pushq  $0x11
  400d2b:	e9 d0 fe ff ff       	jmpq   400c00 <_init+0x20>

0000000000400d30 <time@plt>:
  400d30:	ff 25 72 33 20 00    	jmpq   *0x203372(%rip)        # 6040a8 <_GLOBAL_OFFSET_TABLE_+0xa8>
  400d36:	68 12 00 00 00       	pushq  $0x12
  400d3b:	e9 c0 fe ff ff       	jmpq   400c00 <_init+0x20>

0000000000400d40 <fflush@plt>:
  400d40:	ff 25 6a 33 20 00    	jmpq   *0x20336a(%rip)        # 6040b0 <_GLOBAL_OFFSET_TABLE_+0xb0>
  400d46:	68 13 00 00 00       	pushq  $0x13
  400d4b:	e9 b0 fe ff ff       	jmpq   400c00 <_init+0x20>

0000000000400d50 <__isoc99_sscanf@plt>:
  400d50:	ff 25 62 33 20 00    	jmpq   *0x203362(%rip)        # 6040b8 <_GLOBAL_OFFSET_TABLE_+0xb8>
  400d56:	68 14 00 00 00       	pushq  $0x14
  400d5b:	e9 a0 fe ff ff       	jmpq   400c00 <_init+0x20>

0000000000400d60 <__printf_chk@plt>:
  400d60:	ff 25 5a 33 20 00    	jmpq   *0x20335a(%rip)        # 6040c0 <_GLOBAL_OFFSET_TABLE_+0xc0>
  400d66:	68 15 00 00 00       	pushq  $0x15
  400d6b:	e9 90 fe ff ff       	jmpq   400c00 <_init+0x20>

0000000000400d70 <fopen@plt>:
  400d70:	ff 25 52 33 20 00    	jmpq   *0x203352(%rip)        # 6040c8 <_GLOBAL_OFFSET_TABLE_+0xc8>
  400d76:	68 16 00 00 00       	pushq  $0x16
  400d7b:	e9 80 fe ff ff       	jmpq   400c00 <_init+0x20>

0000000000400d80 <gethostname@plt>:
  400d80:	ff 25 4a 33 20 00    	jmpq   *0x20334a(%rip)        # 6040d0 <_GLOBAL_OFFSET_TABLE_+0xd0>
  400d86:	68 17 00 00 00       	pushq  $0x17
  400d8b:	e9 70 fe ff ff       	jmpq   400c00 <_init+0x20>

0000000000400d90 <exit@plt>:
  400d90:	ff 25 42 33 20 00    	jmpq   *0x203342(%rip)        # 6040d8 <_GLOBAL_OFFSET_TABLE_+0xd8>
  400d96:	68 18 00 00 00       	pushq  $0x18
  400d9b:	e9 60 fe ff ff       	jmpq   400c00 <_init+0x20>

0000000000400da0 <connect@plt>:
  400da0:	ff 25 3a 33 20 00    	jmpq   *0x20333a(%rip)        # 6040e0 <_GLOBAL_OFFSET_TABLE_+0xe0>
  400da6:	68 19 00 00 00       	pushq  $0x19
  400dab:	e9 50 fe ff ff       	jmpq   400c00 <_init+0x20>

0000000000400db0 <__fprintf_chk@plt>:
  400db0:	ff 25 32 33 20 00    	jmpq   *0x203332(%rip)        # 6040e8 <_GLOBAL_OFFSET_TABLE_+0xe8>
  400db6:	68 1a 00 00 00       	pushq  $0x1a
  400dbb:	e9 40 fe ff ff       	jmpq   400c00 <_init+0x20>

0000000000400dc0 <sleep@plt>:
  400dc0:	ff 25 2a 33 20 00    	jmpq   *0x20332a(%rip)        # 6040f0 <_GLOBAL_OFFSET_TABLE_+0xf0>
  400dc6:	68 1b 00 00 00       	pushq  $0x1b
  400dcb:	e9 30 fe ff ff       	jmpq   400c00 <_init+0x20>

0000000000400dd0 <rand@plt>:
  400dd0:	ff 25 22 33 20 00    	jmpq   *0x203322(%rip)        # 6040f8 <_GLOBAL_OFFSET_TABLE_+0xf8>
  400dd6:	68 1c 00 00 00       	pushq  $0x1c
  400ddb:	e9 20 fe ff ff       	jmpq   400c00 <_init+0x20>

0000000000400de0 <__ctype_b_loc@plt>:
  400de0:	ff 25 1a 33 20 00    	jmpq   *0x20331a(%rip)        # 604100 <_GLOBAL_OFFSET_TABLE_+0x100>
  400de6:	68 1d 00 00 00       	pushq  $0x1d
  400deb:	e9 10 fe ff ff       	jmpq   400c00 <_init+0x20>

0000000000400df0 <__sprintf_chk@plt>:
  400df0:	ff 25 12 33 20 00    	jmpq   *0x203312(%rip)        # 604108 <_GLOBAL_OFFSET_TABLE_+0x108>
  400df6:	68 1e 00 00 00       	pushq  $0x1e
  400dfb:	e9 00 fe ff ff       	jmpq   400c00 <_init+0x20>

0000000000400e00 <socket@plt>:
  400e00:	ff 25 0a 33 20 00    	jmpq   *0x20330a(%rip)        # 604110 <_GLOBAL_OFFSET_TABLE_+0x110>
  400e06:	68 1f 00 00 00       	pushq  $0x1f
  400e0b:	e9 f0 fd ff ff       	jmpq   400c00 <_init+0x20>

Disassembly of section .plt.got:

0000000000400e10 <.plt.got>:
  400e10:	ff 25 e2 31 20 00    	jmpq   *0x2031e2(%rip)        # 603ff8 <_DYNAMIC+0x1d0>
  400e16:	66 90                	xchg   %ax,%ax

Disassembly of section .text:

0000000000400e20 <_start>:
  400e20:	31 ed                	xor    %ebp,%ebp
  400e22:	49 89 d1             	mov    %rdx,%r9
  400e25:	5e                   	pop    %rsi
  400e26:	48 89 e2             	mov    %rsp,%rdx
  400e29:	48 83 e4 f0          	and    $0xfffffffffffffff0,%rsp
  400e2d:	50                   	push   %rax
  400e2e:	54                   	push   %rsp
  400e2f:	49 c7 c0 b0 2b 40 00 	mov    $0x402bb0,%r8
  400e36:	48 c7 c1 40 2b 40 00 	mov    $0x402b40,%rcx
  400e3d:	48 c7 c7 16 0f 40 00 	mov    $0x400f16,%rdi
  400e44:	e8 77 fe ff ff       	callq  400cc0 <__libc_start_main@plt>
  400e49:	f4                   	hlt    
  400e4a:	66 0f 1f 44 00 00    	nopw   0x0(%rax,%rax,1)

0000000000400e50 <deregister_tm_clones>:
  400e50:	b8 c7 47 60 00       	mov    $0x6047c7,%eax
  400e55:	55                   	push   %rbp
  400e56:	48 2d c0 47 60 00    	sub    $0x6047c0,%rax
  400e5c:	48 83 f8 0e          	cmp    $0xe,%rax
  400e60:	48 89 e5             	mov    %rsp,%rbp
  400e63:	76 1b                	jbe    400e80 <deregister_tm_clones+0x30>
  400e65:	b8 00 00 00 00       	mov    $0x0,%eax
  400e6a:	48 85 c0             	test   %rax,%rax
  400e6d:	74 11                	je     400e80 <deregister_tm_clones+0x30>
  400e6f:	5d                   	pop    %rbp
  400e70:	bf c0 47 60 00       	mov    $0x6047c0,%edi
  400e75:	ff e0                	jmpq   *%rax
  400e77:	66 0f 1f 84 00 00 00 	nopw   0x0(%rax,%rax,1)
  400e7e:	00 00 
  400e80:	5d                   	pop    %rbp
  400e81:	c3                   	retq   
  400e82:	0f 1f 40 00          	nopl   0x0(%rax)
  400e86:	66 2e 0f 1f 84 00 00 	nopw   %cs:0x0(%rax,%rax,1)
  400e8d:	00 00 00 

0000000000400e90 <register_tm_clones>:
  400e90:	be c0 47 60 00       	mov    $0x6047c0,%esi
  400e95:	55                   	push   %rbp
  400e96:	48 81 ee c0 47 60 00 	sub    $0x6047c0,%rsi
  400e9d:	48 c1 fe 03          	sar    $0x3,%rsi
  400ea1:	48 89 e5             	mov    %rsp,%rbp
  400ea4:	48 89 f0             	mov    %rsi,%rax
  400ea7:	48 c1 e8 3f          	shr    $0x3f,%rax
  400eab:	48 01 c6             	add    %rax,%rsi
  400eae:	48 d1 fe             	sar    %rsi
  400eb1:	74 15                	je     400ec8 <register_tm_clones+0x38>
  400eb3:	b8 00 00 00 00       	mov    $0x0,%eax
  400eb8:	48 85 c0             	test   %rax,%rax
  400ebb:	74 0b                	je     400ec8 <register_tm_clones+0x38>
  400ebd:	5d                   	pop    %rbp
  400ebe:	bf c0 47 60 00       	mov    $0x6047c0,%edi
  400ec3:	ff e0                	jmpq   *%rax
  400ec5:	0f 1f 00             	nopl   (%rax)
  400ec8:	5d                   	pop    %rbp
  400ec9:	c3                   	retq   
  400eca:	66 0f 1f 44 00 00    	nopw   0x0(%rax,%rax,1)

0000000000400ed0 <__do_global_dtors_aux>:
  400ed0:	80 3d 11 39 20 00 00 	cmpb   $0x0,0x203911(%rip)        # 6047e8 <completed.7585>
  400ed7:	75 11                	jne    400eea <__do_global_dtors_aux+0x1a>
  400ed9:	55                   	push   %rbp
  400eda:	48 89 e5             	mov    %rsp,%rbp
  400edd:	e8 6e ff ff ff       	callq  400e50 <deregister_tm_clones>
  400ee2:	5d                   	pop    %rbp
  400ee3:	c6 05 fe 38 20 00 01 	movb   $0x1,0x2038fe(%rip)        # 6047e8 <completed.7585>
  400eea:	f3 c3                	repz retq 
  400eec:	0f 1f 40 00          	nopl   0x0(%rax)

0000000000400ef0 <frame_dummy>:
  400ef0:	bf 20 3e 60 00       	mov    $0x603e20,%edi
  400ef5:	48 83 3f 00          	cmpq   $0x0,(%rdi)
  400ef9:	75 05                	jne    400f00 <frame_dummy+0x10>
  400efb:	eb 93                	jmp    400e90 <register_tm_clones>
  400efd:	0f 1f 00             	nopl   (%rax)
  400f00:	b8 00 00 00 00       	mov    $0x0,%eax
  400f05:	48 85 c0             	test   %rax,%rax
  400f08:	74 f1                	je     400efb <frame_dummy+0xb>
  400f0a:	55                   	push   %rbp
  400f0b:	48 89 e5             	mov    %rsp,%rbp
  400f0e:	ff d0                	callq  *%rax
  400f10:	5d                   	pop    %rbp
  400f11:	e9 7a ff ff ff       	jmpq   400e90 <register_tm_clones>

0000000000400f16 <main>:
  400f16:	53                   	push   %rbx
  400f17:	83 ff 01             	cmp    $0x1,%edi
  400f1a:	75 10                	jne    400f2c <main+0x16>
  400f1c:	48 8b 05 ad 38 20 00 	mov    0x2038ad(%rip),%rax        # 6047d0 <stdin@@GLIBC_2.2.5>
  400f23:	48 89 05 fe 38 20 00 	mov    %rax,0x2038fe(%rip)        # 604828 <infile>
  400f2a:	eb 63                	jmp    400f8f <main+0x79>
  400f2c:	48 89 f3             	mov    %rsi,%rbx
  400f2f:	83 ff 02             	cmp    $0x2,%edi
  400f32:	75 3a                	jne    400f6e <main+0x58>
  400f34:	48 8b 7e 08          	mov    0x8(%rsi),%rdi
  400f38:	be 7b 32 40 00       	mov    $0x40327b,%esi
  400f3d:	e8 2e fe ff ff       	callq  400d70 <fopen@plt>
  400f42:	48 89 05 df 38 20 00 	mov    %rax,0x2038df(%rip)        # 604828 <infile>
  400f49:	48 85 c0             	test   %rax,%rax
  400f4c:	75 41                	jne    400f8f <main+0x79>
  400f4e:	48 8b 4b 08          	mov    0x8(%rbx),%rcx
  400f52:	48 8b 13             	mov    (%rbx),%rdx
  400f55:	be c4 2b 40 00       	mov    $0x402bc4,%esi
  400f5a:	bf 01 00 00 00       	mov    $0x1,%edi
  400f5f:	e8 fc fd ff ff       	callq  400d60 <__printf_chk@plt>
  400f64:	bf 08 00 00 00       	mov    $0x8,%edi
  400f69:	e8 22 fe ff ff       	callq  400d90 <exit@plt>
  400f6e:	48 8b 16             	mov    (%rsi),%rdx
  400f71:	be e1 2b 40 00       	mov    $0x402be1,%esi
  400f76:	bf 01 00 00 00       	mov    $0x1,%edi
  400f7b:	b8 00 00 00 00       	mov    $0x0,%eax
  400f80:	e8 db fd ff ff       	callq  400d60 <__printf_chk@plt>
  400f85:	bf 08 00 00 00       	mov    $0x8,%edi
  400f8a:	e8 01 fe ff ff       	callq  400d90 <exit@plt>
  400f8f:	e8 e3 09 00 00       	callq  401977 <initialize_bomb>
  400f94:	bf 48 2c 40 00       	mov    $0x402c48,%edi
  400f99:	e8 b2 fc ff ff       	callq  400c50 <puts@plt>
  400f9e:	bf 88 2c 40 00       	mov    $0x402c88,%edi
  400fa3:	e8 a8 fc ff ff       	callq  400c50 <puts@plt>
  400fa8:	e8 2c 0c 00 00       	callq  401bd9 <read_line>
  400fad:	48 89 c7             	mov    %rax,%rdi
  400fb0:	ff 15 6a 38 20 00    	callq  *0x20386a(%rip)        # 604820 <call_phase_1>
  400fb6:	e8 cd 0e 00 00       	callq  401e88 <phase_defused>
  400fbb:	bf b8 2c 40 00       	mov    $0x402cb8,%edi
  400fc0:	e8 8b fc ff ff       	callq  400c50 <puts@plt>
  400fc5:	e8 0f 0c 00 00       	callq  401bd9 <read_line>
  400fca:	48 89 c7             	mov    %rax,%rdi
  400fcd:	ff 15 45 38 20 00    	callq  *0x203845(%rip)        # 604818 <call_phase_2>
  400fd3:	e8 b0 0e 00 00       	callq  401e88 <phase_defused>
  400fd8:	bf fb 2b 40 00       	mov    $0x402bfb,%edi
  400fdd:	e8 6e fc ff ff       	callq  400c50 <puts@plt>
  400fe2:	e8 f2 0b 00 00       	callq  401bd9 <read_line>
  400fe7:	48 89 c7             	mov    %rax,%rdi
  400fea:	ff 15 20 38 20 00    	callq  *0x203820(%rip)        # 604810 <call_phase_3>
  400ff0:	e8 93 0e 00 00       	callq  401e88 <phase_defused>
  400ff5:	bf 19 2c 40 00       	mov    $0x402c19,%edi
  400ffa:	e8 51 fc ff ff       	callq  400c50 <puts@plt>
  400fff:	e8 d5 0b 00 00       	callq  401bd9 <read_line>
  401004:	48 89 c7             	mov    %rax,%rdi
  401007:	ff 15 fb 37 20 00    	callq  *0x2037fb(%rip)        # 604808 <call_phase_4>
  40100d:	e8 76 0e 00 00       	callq  401e88 <phase_defused>
  401012:	bf e8 2c 40 00       	mov    $0x402ce8,%edi
  401017:	e8 34 fc ff ff       	callq  400c50 <puts@plt>
  40101c:	e8 b8 0b 00 00       	callq  401bd9 <read_line>
  401021:	48 89 c7             	mov    %rax,%rdi
  401024:	ff 15 d6 37 20 00    	callq  *0x2037d6(%rip)        # 604800 <call_phase_5>
  40102a:	e8 59 0e 00 00       	callq  401e88 <phase_defused>
  40102f:	bf 28 2c 40 00       	mov    $0x402c28,%edi
  401034:	e8 17 fc ff ff       	callq  400c50 <puts@plt>
  401039:	e8 9b 0b 00 00       	callq  401bd9 <read_line>
  40103e:	48 89 c7             	mov    %rax,%rdi
  401041:	ff 15 b1 37 20 00    	callq  *0x2037b1(%rip)        # 6047f8 <call_phase_6>
  401047:	e8 3c 0e 00 00       	callq  401e88 <phase_defused>
  40104c:	b8 00 00 00 00       	mov    $0x0,%eax
  401051:	5b                   	pop    %rbx
  401052:	c3                   	retq   

0000000000401053 <phase_1>:
  401053:	48 83 ec 08          	sub    $0x8,%rsp
  401057:	be 10 2d 40 00       	mov    $0x402d10,%esi
  40105c:	e8 af 08 00 00       	callq  401910 <strings_not_equal>
  401061:	85 c0                	test   %eax,%eax
  401063:	74 0b                	je     401070 <phase_1+0x1d>
  401065:	b8 00 00 00 00       	mov    $0x0,%eax
  40106a:	ff 15 38 33 20 00    	callq  *0x203338(%rip)        # 6043a8 <explode_bomb>
  401070:	48 83 c4 08          	add    $0x8,%rsp
  401074:	c3                   	retq   

0000000000401075 <phase_2>:
  401075:	55                   	push   %rbp
  401076:	53                   	push   %rbx
  401077:	48 83 ec 28          	sub    $0x28,%rsp
  40107b:	64 48 8b 04 25 28 00 	mov    %fs:0x28,%rax
  401082:	00 00 
  401084:	48 89 44 24 18       	mov    %rax,0x18(%rsp)
  401089:	31 c0                	xor    %eax,%eax
  40108b:	48 89 e6             	mov    %rsp,%rsi
  40108e:	e8 1a 08 00 00       	callq  4018ad <read_six_numbers>
  401093:	83 3c 24 05          	cmpl   $0x5,(%rsp)
  401097:	74 0b                	je     4010a4 <phase_2+0x2f>
  401099:	b8 00 00 00 00       	mov    $0x0,%eax
  40109e:	ff 15 04 33 20 00    	callq  *0x203304(%rip)        # 6043a8 <explode_bomb>
  4010a4:	48 89 e3             	mov    %rsp,%rbx
  4010a7:	48 8d 6c 24 14       	lea    0x14(%rsp),%rbp
  4010ac:	8b 03                	mov    (%rbx),%eax
  4010ae:	8d 04 40             	lea    (%rax,%rax,2),%eax
  4010b1:	39 43 04             	cmp    %eax,0x4(%rbx)
  4010b4:	74 0b                	je     4010c1 <phase_2+0x4c>
  4010b6:	b8 00 00 00 00       	mov    $0x0,%eax
  4010bb:	ff 15 e7 32 20 00    	callq  *0x2032e7(%rip)        # 6043a8 <explode_bomb>
  4010c1:	48 83 c3 04          	add    $0x4,%rbx
  4010c5:	48 39 eb             	cmp    %rbp,%rbx
  4010c8:	75 e2                	jne    4010ac <phase_2+0x37>
  4010ca:	8b 04 24             	mov    (%rsp),%eax
  4010cd:	8d 04 c0             	lea    (%rax,%rax,8),%eax
  4010d0:	3b 44 24 08          	cmp    0x8(%rsp),%eax
  4010d4:	74 0b                	je     4010e1 <phase_2+0x6c>
  4010d6:	b8 00 00 00 00       	mov    $0x0,%eax
  4010db:	ff 15 c7 32 20 00    	callq  *0x2032c7(%rip)        # 6043a8 <explode_bomb>
  4010e1:	8b 44 24 04          	mov    0x4(%rsp),%eax
  4010e5:	8d 04 c0             	lea    (%rax,%rax,8),%eax
  4010e8:	3b 44 24 0c          	cmp    0xc(%rsp),%eax
  4010ec:	74 0b                	je     4010f9 <phase_2+0x84>
  4010ee:	b8 00 00 00 00       	mov    $0x0,%eax
  4010f3:	ff 15 af 32 20 00    	callq  *0x2032af(%rip)        # 6043a8 <explode_bomb>
  4010f9:	48 8b 44 24 18       	mov    0x18(%rsp),%rax
  4010fe:	64 48 33 04 25 28 00 	xor    %fs:0x28,%rax
  401105:	00 00 
  401107:	74 05                	je     40110e <phase_2+0x99>
  401109:	e8 72 fb ff ff       	callq  400c80 <__stack_chk_fail@plt>
  40110e:	48 83 c4 28          	add    $0x28,%rsp
  401112:	5b                   	pop    %rbx
  401113:	5d                   	pop    %rbp
  401114:	c3                   	retq   

0000000000401115 <winner_winner_chicken_dinner>:
  401115:	48 83 ec 08          	sub    $0x8,%rsp
  401119:	b8 00 00 00 00       	mov    $0x0,%eax
  40111e:	ff 15 84 32 20 00    	callq  *0x203284(%rip)        # 6043a8 <explode_bomb>
  401124:	48 83 c4 08          	add    $0x8,%rsp
  401128:	c3                   	retq   

0000000000401129 <phase_3>:
  401129:	48 83 ec 18          	sub    $0x18,%rsp
  40112d:	64 48 8b 04 25 28 00 	mov    %fs:0x28,%rax
  401134:	00 00 
  401136:	48 89 44 24 08       	mov    %rax,0x8(%rsp)
  40113b:	31 c0                	xor    %eax,%eax
  40113d:	48 8d 4c 24 04       	lea    0x4(%rsp),%rcx
  401142:	48 89 e2             	mov    %rsp,%rdx
  401145:	be 41 2e 40 00       	mov    $0x402e41,%esi
  40114a:	e8 01 fc ff ff       	callq  400d50 <__isoc99_sscanf@plt>
  40114f:	83 f8 01             	cmp    $0x1,%eax
  401152:	7f 0a                	jg     40115e <phase_3+0x35>
  401154:	b8 00 00 00 00       	mov    $0x0,%eax
  401159:	e8 b7 ff ff ff       	callq  401115 <winner_winner_chicken_dinner>
  40115e:	8b 04 24             	mov    (%rsp),%eax
  401161:	83 f8 07             	cmp    $0x7,%eax
  401164:	77 73                	ja     4011d9 <phase_3+0xb0>
  401166:	89 c2                	mov    %eax,%edx
  401168:	ff 24 d5 80 2d 40 00 	jmpq   *0x402d80(,%rdx,8)
  40116f:	ba ec 06 00 00       	mov    $0x6ec,%edx
  401174:	eb 05                	jmp    40117b <phase_3+0x52>
  401176:	ba 00 00 00 00       	mov    $0x0,%edx
  40117b:	8d 94 02 9e f9 ff ff 	lea    -0x662(%rdx,%rax,1),%edx
  401182:	eb 05                	jmp    401189 <phase_3+0x60>
  401184:	ba 00 00 00 00       	mov    $0x0,%edx
  401189:	8d 94 02 da 07 00 00 	lea    0x7da(%rdx,%rax,1),%edx
  401190:	eb 05                	jmp    401197 <phase_3+0x6e>
  401192:	ba 00 00 00 00       	mov    $0x0,%edx
  401197:	81 ea bf 07 00 00    	sub    $0x7bf,%edx
  40119d:	eb 05                	jmp    4011a4 <phase_3+0x7b>
  40119f:	ba 00 00 00 00       	mov    $0x0,%edx
  4011a4:	8d 94 02 bf 07 00 00 	lea    0x7bf(%rdx,%rax,1),%edx
  4011ab:	eb 05                	jmp    4011b2 <phase_3+0x89>
  4011ad:	ba 00 00 00 00       	mov    $0x0,%edx
  4011b2:	81 ea bf 07 00 00    	sub    $0x7bf,%edx
  4011b8:	29 c2                	sub    %eax,%edx
  4011ba:	eb 05                	jmp    4011c1 <phase_3+0x98>
  4011bc:	ba 00 00 00 00       	mov    $0x0,%edx
  4011c1:	8d 94 02 bf 07 00 00 	lea    0x7bf(%rdx,%rax,1),%edx
  4011c8:	eb 05                	jmp    4011cf <phase_3+0xa6>
  4011ca:	ba 00 00 00 00       	mov    $0x0,%edx
  4011cf:	81 ea bf 07 00 00    	sub    $0x7bf,%edx
  4011d5:	29 c2                	sub    %eax,%edx
  4011d7:	eb 10                	jmp    4011e9 <phase_3+0xc0>
  4011d9:	b8 00 00 00 00       	mov    $0x0,%eax
  4011de:	ff 15 c4 31 20 00    	callq  *0x2031c4(%rip)        # 6043a8 <explode_bomb>
  4011e4:	ba 00 00 00 00       	mov    $0x0,%edx
  4011e9:	83 3c 24 04          	cmpl   $0x4,(%rsp)
  4011ed:	7f 06                	jg     4011f5 <phase_3+0xcc>
  4011ef:	3b 54 24 04          	cmp    0x4(%rsp),%edx
  4011f3:	74 0b                	je     401200 <phase_3+0xd7>
  4011f5:	b8 00 00 00 00       	mov    $0x0,%eax
  4011fa:	ff 15 a8 31 20 00    	callq  *0x2031a8(%rip)        # 6043a8 <explode_bomb>
  401200:	48 8b 44 24 08       	mov    0x8(%rsp),%rax
  401205:	64 48 33 04 25 28 00 	xor    %fs:0x28,%rax
  40120c:	00 00 
  40120e:	74 05                	je     401215 <phase_3+0xec>
  401210:	e8 6b fa ff ff       	callq  400c80 <__stack_chk_fail@plt>
  401215:	48 83 c4 18          	add    $0x18,%rsp
  401219:	c3                   	retq   

000000000040121a <func4>:
  40121a:	53                   	push   %rbx
  40121b:	89 d0                	mov    %edx,%eax
  40121d:	29 f0                	sub    %esi,%eax
  40121f:	89 c3                	mov    %eax,%ebx
  401221:	c1 eb 1f             	shr    $0x1f,%ebx
  401224:	01 d8                	add    %ebx,%eax
  401226:	d1 f8                	sar    %eax
  401228:	8d 1c 30             	lea    (%rax,%rsi,1),%ebx
  40122b:	39 fb                	cmp    %edi,%ebx
  40122d:	7e 0c                	jle    40123b <func4+0x21>
  40122f:	8d 53 ff             	lea    -0x1(%rbx),%edx
  401232:	e8 e3 ff ff ff       	callq  40121a <func4>
  401237:	01 d8                	add    %ebx,%eax
  401239:	eb 10                	jmp    40124b <func4+0x31>
  40123b:	89 d8                	mov    %ebx,%eax
  40123d:	39 fb                	cmp    %edi,%ebx
  40123f:	7d 0a                	jge    40124b <func4+0x31>
  401241:	8d 73 01             	lea    0x1(%rbx),%esi
  401244:	e8 d1 ff ff ff       	callq  40121a <func4>
  401249:	01 d8                	add    %ebx,%eax
  40124b:	5b                   	pop    %rbx
  40124c:	c3                   	retq   

000000000040124d <phase_4>:
  40124d:	48 83 ec 18          	sub    $0x18,%rsp
  401251:	64 48 8b 04 25 28 00 	mov    %fs:0x28,%rax
  401258:	00 00 
  40125a:	48 89 44 24 08       	mov    %rax,0x8(%rsp)
  40125f:	31 c0                	xor    %eax,%eax
  401261:	48 8d 4c 24 04       	lea    0x4(%rsp),%rcx
  401266:	48 89 e2             	mov    %rsp,%rdx
  401269:	be 41 2e 40 00       	mov    $0x402e41,%esi
  40126e:	e8 dd fa ff ff       	callq  400d50 <__isoc99_sscanf@plt>
  401273:	83 f8 02             	cmp    $0x2,%eax
  401276:	75 0b                	jne    401283 <phase_4+0x36>
  401278:	8b 04 24             	mov    (%rsp),%eax
  40127b:	83 e8 14             	sub    $0x14,%eax
  40127e:	83 f8 0f             	cmp    $0xf,%eax
  401281:	76 0b                	jbe    40128e <phase_4+0x41>
  401283:	b8 00 00 00 00       	mov    $0x0,%eax
  401288:	ff 15 1a 31 20 00    	callq  *0x20311a(%rip)        # 6043a8 <explode_bomb>
  40128e:	ba 23 00 00 00       	mov    $0x23,%edx
  401293:	be 00 00 00 00       	mov    $0x0,%esi
  401298:	8b 3c 24             	mov    (%rsp),%edi
  40129b:	e8 7a ff ff ff       	callq  40121a <func4>
  4012a0:	3d 81 00 00 00       	cmp    $0x81,%eax
  4012a5:	75 0a                	jne    4012b1 <phase_4+0x64>
  4012a7:	81 7c 24 04 81 00 00 	cmpl   $0x81,0x4(%rsp)
  4012ae:	00 
  4012af:	74 0b                	je     4012bc <phase_4+0x6f>
  4012b1:	b8 00 00 00 00       	mov    $0x0,%eax
  4012b6:	ff 15 ec 30 20 00    	callq  *0x2030ec(%rip)        # 6043a8 <explode_bomb>
  4012bc:	48 8b 44 24 08       	mov    0x8(%rsp),%rax
  4012c1:	64 48 33 04 25 28 00 	xor    %fs:0x28,%rax
  4012c8:	00 00 
  4012ca:	74 05                	je     4012d1 <phase_4+0x84>
  4012cc:	e8 af f9 ff ff       	callq  400c80 <__stack_chk_fail@plt>
  4012d1:	48 83 c4 18          	add    $0x18,%rsp
  4012d5:	c3                   	retq   

00000000004012d6 <phase_5>:
  4012d6:	48 83 ec 18          	sub    $0x18,%rsp
  4012da:	64 48 8b 04 25 28 00 	mov    %fs:0x28,%rax
  4012e1:	00 00 
  4012e3:	48 89 44 24 08       	mov    %rax,0x8(%rsp)
  4012e8:	31 c0                	xor    %eax,%eax
  4012ea:	48 8d 4c 24 04       	lea    0x4(%rsp),%rcx
  4012ef:	48 89 e2             	mov    %rsp,%rdx
  4012f2:	be 41 2e 40 00       	mov    $0x402e41,%esi
  4012f7:	e8 54 fa ff ff       	callq  400d50 <__isoc99_sscanf@plt>
  4012fc:	83 f8 01             	cmp    $0x1,%eax
  4012ff:	7f 0b                	jg     40130c <phase_5+0x36>
  401301:	b8 00 00 00 00       	mov    $0x0,%eax
  401306:	ff 15 9c 30 20 00    	callq  *0x20309c(%rip)        # 6043a8 <explode_bomb>
  40130c:	8b 04 24             	mov    (%rsp),%eax
  40130f:	83 e0 0f             	and    $0xf,%eax
  401312:	89 04 24             	mov    %eax,(%rsp)
  401315:	83 f8 0f             	cmp    $0xf,%eax
  401318:	74 2f                	je     401349 <phase_5+0x73>
  40131a:	b9 00 00 00 00       	mov    $0x0,%ecx
  40131f:	ba 00 00 00 00       	mov    $0x0,%edx
  401324:	83 c2 01             	add    $0x1,%edx
  401327:	48 98                	cltq   
  401329:	8b 04 85 c0 2d 40 00 	mov    0x402dc0(,%rax,4),%eax
  401330:	01 c1                	add    %eax,%ecx
  401332:	83 f8 0f             	cmp    $0xf,%eax
  401335:	75 ed                	jne    401324 <phase_5+0x4e>
  401337:	c7 04 24 0f 00 00 00 	movl   $0xf,(%rsp)
  40133e:	83 fa 03             	cmp    $0x3,%edx
  401341:	75 06                	jne    401349 <phase_5+0x73>
  401343:	3b 4c 24 04          	cmp    0x4(%rsp),%ecx
  401347:	74 0b                	je     401354 <phase_5+0x7e>
  401349:	b8 00 00 00 00       	mov    $0x0,%eax
  40134e:	ff 15 54 30 20 00    	callq  *0x203054(%rip)        # 6043a8 <explode_bomb>
  401354:	48 8b 44 24 08       	mov    0x8(%rsp),%rax
  401359:	64 48 33 04 25 28 00 	xor    %fs:0x28,%rax
  401360:	00 00 
  401362:	74 05                	je     401369 <phase_5+0x93>
  401364:	e8 17 f9 ff ff       	callq  400c80 <__stack_chk_fail@plt>
  401369:	48 83 c4 18          	add    $0x18,%rsp
  40136d:	c3                   	retq   

000000000040136e <phase_6>:
  40136e:	41 56                	push   %r14
  401370:	41 55                	push   %r13
  401372:	41 54                	push   %r12
  401374:	55                   	push   %rbp
  401375:	53                   	push   %rbx
  401376:	48 83 ec 60          	sub    $0x60,%rsp
  40137a:	64 48 8b 04 25 28 00 	mov    %fs:0x28,%rax
  401381:	00 00 
  401383:	48 89 44 24 58       	mov    %rax,0x58(%rsp)
  401388:	31 c0                	xor    %eax,%eax
  40138a:	48 89 e6             	mov    %rsp,%rsi
  40138d:	e8 1b 05 00 00       	callq  4018ad <read_six_numbers>
  401392:	49 89 e4             	mov    %rsp,%r12
  401395:	49 89 e5             	mov    %rsp,%r13
  401398:	41 be 00 00 00 00    	mov    $0x0,%r14d
  40139e:	4c 89 ed             	mov    %r13,%rbp
  4013a1:	41 8b 45 00          	mov    0x0(%r13),%eax
  4013a5:	83 e8 01             	sub    $0x1,%eax
  4013a8:	83 f8 05             	cmp    $0x5,%eax
  4013ab:	76 0b                	jbe    4013b8 <phase_6+0x4a>
  4013ad:	b8 00 00 00 00       	mov    $0x0,%eax
  4013b2:	ff 15 f0 2f 20 00    	callq  *0x202ff0(%rip)        # 6043a8 <explode_bomb>
  4013b8:	41 83 c6 01          	add    $0x1,%r14d
  4013bc:	41 83 fe 06          	cmp    $0x6,%r14d
  4013c0:	74 27                	je     4013e9 <phase_6+0x7b>
  4013c2:	44 89 f3             	mov    %r14d,%ebx
  4013c5:	48 63 c3             	movslq %ebx,%rax
  4013c8:	8b 04 84             	mov    (%rsp,%rax,4),%eax
  4013cb:	39 45 00             	cmp    %eax,0x0(%rbp)
  4013ce:	75 0b                	jne    4013db <phase_6+0x6d>
  4013d0:	b8 00 00 00 00       	mov    $0x0,%eax
  4013d5:	ff 15 cd 2f 20 00    	callq  *0x202fcd(%rip)        # 6043a8 <explode_bomb>
  4013db:	83 c3 01             	add    $0x1,%ebx
  4013de:	83 fb 05             	cmp    $0x5,%ebx
  4013e1:	7e e2                	jle    4013c5 <phase_6+0x57>
  4013e3:	49 83 c5 04          	add    $0x4,%r13
  4013e7:	eb b5                	jmp    40139e <phase_6+0x30>
  4013e9:	48 8d 4c 24 18       	lea    0x18(%rsp),%rcx
  4013ee:	ba 07 00 00 00       	mov    $0x7,%edx
  4013f3:	89 d0                	mov    %edx,%eax
  4013f5:	41 2b 04 24          	sub    (%r12),%eax
  4013f9:	41 89 04 24          	mov    %eax,(%r12)
  4013fd:	49 83 c4 04          	add    $0x4,%r12
  401401:	4c 39 e1             	cmp    %r12,%rcx
  401404:	75 ed                	jne    4013f3 <phase_6+0x85>
  401406:	be 00 00 00 00       	mov    $0x0,%esi
  40140b:	eb 1a                	jmp    401427 <phase_6+0xb9>
  40140d:	48 8b 52 08          	mov    0x8(%rdx),%rdx
  401411:	83 c0 01             	add    $0x1,%eax
  401414:	39 c8                	cmp    %ecx,%eax
  401416:	75 f5                	jne    40140d <phase_6+0x9f>
  401418:	48 89 54 74 20       	mov    %rdx,0x20(%rsp,%rsi,2)
  40141d:	48 83 c6 04          	add    $0x4,%rsi
  401421:	48 83 fe 18          	cmp    $0x18,%rsi
  401425:	74 14                	je     40143b <phase_6+0xcd>
  401427:	8b 0c 34             	mov    (%rsp,%rsi,1),%ecx
  40142a:	b8 01 00 00 00       	mov    $0x1,%eax
  40142f:	ba 10 43 60 00       	mov    $0x604310,%edx
  401434:	83 f9 01             	cmp    $0x1,%ecx
  401437:	7f d4                	jg     40140d <phase_6+0x9f>
  401439:	eb dd                	jmp    401418 <phase_6+0xaa>
  40143b:	48 8b 5c 24 20       	mov    0x20(%rsp),%rbx
  401440:	48 8d 44 24 20       	lea    0x20(%rsp),%rax
  401445:	48 8d 74 24 48       	lea    0x48(%rsp),%rsi
  40144a:	48 89 d9             	mov    %rbx,%rcx
  40144d:	48 8b 50 08          	mov    0x8(%rax),%rdx
  401451:	48 89 51 08          	mov    %rdx,0x8(%rcx)
  401455:	48 83 c0 08          	add    $0x8,%rax
  401459:	48 89 d1             	mov    %rdx,%rcx
  40145c:	48 39 c6             	cmp    %rax,%rsi
  40145f:	75 ec                	jne    40144d <phase_6+0xdf>
  401461:	48 c7 42 08 00 00 00 	movq   $0x0,0x8(%rdx)
  401468:	00 
  401469:	bd 05 00 00 00       	mov    $0x5,%ebp
  40146e:	48 8b 43 08          	mov    0x8(%rbx),%rax
  401472:	8b 00                	mov    (%rax),%eax
  401474:	39 03                	cmp    %eax,(%rbx)
  401476:	7d 0b                	jge    401483 <phase_6+0x115>
  401478:	b8 00 00 00 00       	mov    $0x0,%eax
  40147d:	ff 15 25 2f 20 00    	callq  *0x202f25(%rip)        # 6043a8 <explode_bomb>
  401483:	48 8b 5b 08          	mov    0x8(%rbx),%rbx
  401487:	83 ed 01             	sub    $0x1,%ebp
  40148a:	75 e2                	jne    40146e <phase_6+0x100>
  40148c:	48 8b 44 24 58       	mov    0x58(%rsp),%rax
  401491:	64 48 33 04 25 28 00 	xor    %fs:0x28,%rax
  401498:	00 00 
  40149a:	74 05                	je     4014a1 <phase_6+0x133>
  40149c:	e8 df f7 ff ff       	callq  400c80 <__stack_chk_fail@plt>
  4014a1:	48 83 c4 60          	add    $0x60,%rsp
  4014a5:	5b                   	pop    %rbx
  4014a6:	5d                   	pop    %rbp
  4014a7:	41 5c                	pop    %r12
  4014a9:	41 5d                	pop    %r13
  4014ab:	41 5e                	pop    %r14
  4014ad:	c3                   	retq   

00000000004014ae <fun7>:
  4014ae:	48 83 ec 08          	sub    $0x8,%rsp
  4014b2:	48 85 ff             	test   %rdi,%rdi
  4014b5:	74 2b                	je     4014e2 <fun7+0x34>
  4014b7:	8b 17                	mov    (%rdi),%edx
  4014b9:	39 f2                	cmp    %esi,%edx
  4014bb:	7e 0d                	jle    4014ca <fun7+0x1c>
  4014bd:	48 8b 7f 08          	mov    0x8(%rdi),%rdi
  4014c1:	e8 e8 ff ff ff       	callq  4014ae <fun7>
  4014c6:	01 c0                	add    %eax,%eax
  4014c8:	eb 1d                	jmp    4014e7 <fun7+0x39>
  4014ca:	b8 00 00 00 00       	mov    $0x0,%eax
  4014cf:	39 f2                	cmp    %esi,%edx
  4014d1:	74 14                	je     4014e7 <fun7+0x39>
  4014d3:	48 8b 7f 10          	mov    0x10(%rdi),%rdi
  4014d7:	e8 d2 ff ff ff       	callq  4014ae <fun7>
  4014dc:	8d 44 00 01          	lea    0x1(%rax,%rax,1),%eax
  4014e0:	eb 05                	jmp    4014e7 <fun7+0x39>
  4014e2:	b8 ff ff ff ff       	mov    $0xffffffff,%eax
  4014e7:	48 83 c4 08          	add    $0x8,%rsp
  4014eb:	c3                   	retq   

00000000004014ec <secret_phase>:
  4014ec:	53                   	push   %rbx
  4014ed:	e8 e7 06 00 00       	callq  401bd9 <read_line>
  4014f2:	ba 0a 00 00 00       	mov    $0xa,%edx
  4014f7:	be 00 00 00 00       	mov    $0x0,%esi
  4014fc:	48 89 c7             	mov    %rax,%rdi
  4014ff:	e8 1c f8 ff ff       	callq  400d20 <strtol@plt>
  401504:	48 89 c3             	mov    %rax,%rbx
  401507:	8d 40 ff             	lea    -0x1(%rax),%eax
  40150a:	3d e8 03 00 00       	cmp    $0x3e8,%eax
  40150f:	76 0b                	jbe    40151c <secret_phase+0x30>
  401511:	b8 00 00 00 00       	mov    $0x0,%eax
  401516:	ff 15 8c 2e 20 00    	callq  *0x202e8c(%rip)        # 6043a8 <explode_bomb>
  40151c:	89 de                	mov    %ebx,%esi
  40151e:	bf 30 41 60 00       	mov    $0x604130,%edi
  401523:	e8 86 ff ff ff       	callq  4014ae <fun7>
  401528:	83 f8 02             	cmp    $0x2,%eax
  40152b:	74 0b                	je     401538 <secret_phase+0x4c>
  40152d:	b8 00 00 00 00       	mov    $0x0,%eax
  401532:	ff 15 70 2e 20 00    	callq  *0x202e70(%rip)        # 6043a8 <explode_bomb>
  401538:	bf 40 2d 40 00       	mov    $0x402d40,%edi
  40153d:	e8 0e f7 ff ff       	callq  400c50 <puts@plt>
  401542:	e8 41 09 00 00       	callq  401e88 <phase_defused>
  401547:	5b                   	pop    %rbx
  401548:	c3                   	retq   

0000000000401549 <phase_two>:
  401549:	48 83 ec 28          	sub    $0x28,%rsp
  40154d:	64 48 8b 04 25 28 00 	mov    %fs:0x28,%rax
  401554:	00 00 
  401556:	48 89 44 24 18       	mov    %rax,0x18(%rsp)
  40155b:	31 c0                	xor    %eax,%eax
  40155d:	c7 44 24 0c 04 00 00 	movl   $0x4,0xc(%rsp)
  401564:	00 
  401565:	c7 44 24 10 08 00 00 	movl   $0x8,0x10(%rsp)
  40156c:	00 
  40156d:	c7 44 24 14 0c 00 00 	movl   $0xc,0x14(%rsp)
  401574:	00 
  401575:	4c 8d 44 24 14       	lea    0x14(%rsp),%r8
  40157a:	48 8d 4c 24 10       	lea    0x10(%rsp),%rcx
  40157f:	48 8d 54 24 0c       	lea    0xc(%rsp),%rdx
  401584:	be 00 2e 40 00       	mov    $0x402e00,%esi
  401589:	e8 c2 f7 ff ff       	callq  400d50 <__isoc99_sscanf@plt>
  40158e:	83 f8 03             	cmp    $0x3,%eax
  401591:	74 0b                	je     40159e <phase_two+0x55>
  401593:	b8 00 00 00 00       	mov    $0x0,%eax
  401598:	ff 15 0a 2e 20 00    	callq  *0x202e0a(%rip)        # 6043a8 <explode_bomb>
  40159e:	8b 44 24 0c          	mov    0xc(%rsp),%eax
  4015a2:	83 f8 08             	cmp    $0x8,%eax
  4015a5:	77 43                	ja     4015ea <phase_two+0xa1>
  4015a7:	89 c2                	mov    %eax,%edx
  4015a9:	ff 24 d5 c8 32 40 00 	jmpq   *0x4032c8(,%rdx,8)
  4015b0:	ba 02 00 00 00       	mov    $0x2,%edx
  4015b5:	8b 4c 24 10          	mov    0x10(%rsp),%ecx
  4015b9:	d3 e2                	shl    %cl,%edx
  4015bb:	01 c2                	add    %eax,%edx
  4015bd:	89 54 24 14          	mov    %edx,0x14(%rsp)
  4015c1:	ba 03 00 00 00       	mov    $0x3,%edx
  4015c6:	8b 4c 24 10          	mov    0x10(%rsp),%ecx
  4015ca:	d3 e2                	shl    %cl,%edx
  4015cc:	01 c2                	add    %eax,%edx
  4015ce:	01 54 24 14          	add    %edx,0x14(%rsp)
  4015d2:	89 c2                	mov    %eax,%edx
  4015d4:	33 54 24 14          	xor    0x14(%rsp),%edx
  4015d8:	8b 74 24 10          	mov    0x10(%rsp),%esi
  4015dc:	89 c1                	mov    %eax,%ecx
  4015de:	d3 e6                	shl    %cl,%esi
  4015e0:	89 f0                	mov    %esi,%eax
  4015e2:	01 d0                	add    %edx,%eax
  4015e4:	89 44 24 14          	mov    %eax,0x14(%rsp)
  4015e8:	eb 08                	jmp    4015f2 <phase_two+0xa9>
  4015ea:	8b 44 24 10          	mov    0x10(%rsp),%eax
  4015ee:	89 44 24 14          	mov    %eax,0x14(%rsp)
  4015f2:	8b 44 24 14          	mov    0x14(%rsp),%eax
  4015f6:	39 44 24 0c          	cmp    %eax,0xc(%rsp)
  4015fa:	74 0b                	je     401607 <phase_two+0xbe>
  4015fc:	b8 00 00 00 00       	mov    $0x0,%eax
  401601:	ff 15 a1 2d 20 00    	callq  *0x202da1(%rip)        # 6043a8 <explode_bomb>
  401607:	48 8b 44 24 18       	mov    0x18(%rsp),%rax
  40160c:	64 48 33 04 25 28 00 	xor    %fs:0x28,%rax
  401613:	00 00 
  401615:	74 05                	je     40161c <phase_two+0xd3>
  401617:	e8 64 f6 ff ff       	callq  400c80 <__stack_chk_fail@plt>
  40161c:	48 83 c4 28          	add    $0x28,%rsp
  401620:	c3                   	retq   

0000000000401621 <phase_five>:
  401621:	48 83 ec 08          	sub    $0x8,%rsp
  401625:	80 2f 02             	subb   $0x2,(%rdi)
  401628:	80 6f 02 04          	subb   $0x4,0x2(%rdi)
  40162c:	80 6f 04 03          	subb   $0x3,0x4(%rdi)
  401630:	e8 14 ff ff ff       	callq  401549 <phase_two>
  401635:	48 83 c4 08          	add    $0x8,%rsp
  401639:	c3                   	retq   

000000000040163a <phase_three>:
  40163a:	48 83 ec 28          	sub    $0x28,%rsp
  40163e:	64 48 8b 04 25 28 00 	mov    %fs:0x28,%rax
  401645:	00 00 
  401647:	48 89 44 24 18       	mov    %rax,0x18(%rsp)
  40164c:	31 c0                	xor    %eax,%eax
  40164e:	c7 44 24 0c 04 00 00 	movl   $0x4,0xc(%rsp)
  401655:	00 
  401656:	c7 44 24 10 08 00 00 	movl   $0x8,0x10(%rsp)
  40165d:	00 
  40165e:	c7 44 24 14 0c 00 00 	movl   $0xc,0x14(%rsp)
  401665:	00 
  401666:	4c 8d 44 24 14       	lea    0x14(%rsp),%r8
  40166b:	48 8d 4c 24 10       	lea    0x10(%rsp),%rcx
  401670:	48 8d 54 24 0c       	lea    0xc(%rsp),%rdx
  401675:	be 00 2e 40 00       	mov    $0x402e00,%esi
  40167a:	e8 d1 f6 ff ff       	callq  400d50 <__isoc99_sscanf@plt>
  40167f:	83 f8 03             	cmp    $0x3,%eax
  401682:	74 0b                	je     40168f <phase_three+0x55>
  401684:	b8 00 00 00 00       	mov    $0x0,%eax
  401689:	ff 15 19 2d 20 00    	callq  *0x202d19(%rip)        # 6043a8 <explode_bomb>
  40168f:	83 7c 24 10 0a       	cmpl   $0xa,0x10(%rsp)
  401694:	74 0b                	je     4016a1 <phase_three+0x67>
  401696:	b8 00 00 00 00       	mov    $0x0,%eax
  40169b:	ff 15 07 2d 20 00    	callq  *0x202d07(%rip)        # 6043a8 <explode_bomb>
  4016a1:	83 7c 24 14 0f       	cmpl   $0xf,0x14(%rsp)
  4016a6:	74 0b                	je     4016b3 <phase_three+0x79>
  4016a8:	b8 00 00 00 00       	mov    $0x0,%eax
  4016ad:	ff 15 f5 2c 20 00    	callq  *0x202cf5(%rip)        # 6043a8 <explode_bomb>
  4016b3:	8b 44 24 10          	mov    0x10(%rsp),%eax
  4016b7:	03 44 24 0c          	add    0xc(%rsp),%eax
  4016bb:	03 44 24 14          	add    0x14(%rsp),%eax
  4016bf:	a8 01                	test   $0x1,%al
  4016c1:	74 0b                	je     4016ce <phase_three+0x94>
  4016c3:	b8 00 00 00 00       	mov    $0x0,%eax
  4016c8:	ff 15 da 2c 20 00    	callq  *0x202cda(%rip)        # 6043a8 <explode_bomb>
  4016ce:	48 8b 44 24 18       	mov    0x18(%rsp),%rax
  4016d3:	64 48 33 04 25 28 00 	xor    %fs:0x28,%rax
  4016da:	00 00 
  4016dc:	74 05                	je     4016e3 <phase_three+0xa9>
  4016de:	e8 9d f5 ff ff       	callq  400c80 <__stack_chk_fail@plt>
  4016e3:	48 83 c4 28          	add    $0x28,%rsp
  4016e7:	c3                   	retq   

00000000004016e8 <phase_six>:
  4016e8:	48 83 ec 08          	sub    $0x8,%rsp
  4016ec:	80 2f 01             	subb   $0x1,(%rdi)
  4016ef:	80 6f 01 01          	subb   $0x1,0x1(%rdi)
  4016f3:	80 6f 03 01          	subb   $0x1,0x3(%rdi)
  4016f7:	80 6f 04 04          	subb   $0x4,0x4(%rdi)
  4016fb:	80 6f 06 03          	subb   $0x3,0x6(%rdi)
  4016ff:	80 6f 07 01          	subb   $0x1,0x7(%rdi)
  401703:	e8 32 ff ff ff       	callq  40163a <phase_three>
  401708:	48 83 c4 08          	add    $0x8,%rsp
  40170c:	c3                   	retq   

000000000040170d <phase_four>:
  40170d:	48 83 ec 28          	sub    $0x28,%rsp
  401711:	64 48 8b 04 25 28 00 	mov    %fs:0x28,%rax
  401718:	00 00 
  40171a:	48 89 44 24 18       	mov    %rax,0x18(%rsp)
  40171f:	31 c0                	xor    %eax,%eax
  401721:	c7 44 24 0c 04 00 00 	movl   $0x4,0xc(%rsp)
  401728:	00 
  401729:	c7 44 24 10 08 00 00 	movl   $0x8,0x10(%rsp)
  401730:	00 
  401731:	c7 44 24 14 0c 00 00 	movl   $0xc,0x14(%rsp)
  401738:	00 
  401739:	4c 8d 44 24 14       	lea    0x14(%rsp),%r8
  40173e:	48 8d 4c 24 10       	lea    0x10(%rsp),%rcx
  401743:	48 8d 54 24 0c       	lea    0xc(%rsp),%rdx
  401748:	be 00 2e 40 00       	mov    $0x402e00,%esi
  40174d:	e8 fe f5 ff ff       	callq  400d50 <__isoc99_sscanf@plt>
  401752:	83 f8 03             	cmp    $0x3,%eax
  401755:	74 0b                	je     401762 <phase_four+0x55>
  401757:	b8 00 00 00 00       	mov    $0x0,%eax
  40175c:	ff 15 46 2c 20 00    	callq  *0x202c46(%rip)        # 6043a8 <explode_bomb>
  401762:	8b 54 24 0c          	mov    0xc(%rsp),%edx
  401766:	8d 42 fd             	lea    -0x3(%rdx),%eax
  401769:	83 f8 08             	cmp    $0x8,%eax
  40176c:	77 45                	ja     4017b3 <phase_four+0xa6>
  40176e:	89 c0                	mov    %eax,%eax
  401770:	ff 24 c5 10 33 40 00 	jmpq   *0x403310(,%rax,8)
  401777:	b8 06 00 00 00       	mov    $0x6,%eax
  40177c:	8b 4c 24 10          	mov    0x10(%rsp),%ecx
  401780:	d3 e0                	shl    %cl,%eax
  401782:	01 d0                	add    %edx,%eax
  401784:	89 44 24 14          	mov    %eax,0x14(%rsp)
  401788:	b8 0b 00 00 00       	mov    $0xb,%eax
  40178d:	8b 4c 24 10          	mov    0x10(%rsp),%ecx
  401791:	d3 e0                	shl    %cl,%eax
  401793:	01 d0                	add    %edx,%eax
  401795:	01 44 24 14          	add    %eax,0x14(%rsp)
  401799:	8d 82 39 30 00 00    	lea    0x3039(%rdx),%eax
  40179f:	33 44 24 14          	xor    0x14(%rsp),%eax
  4017a3:	8b 74 24 10          	mov    0x10(%rsp),%esi
  4017a7:	89 d1                	mov    %edx,%ecx
  4017a9:	d3 e6                	shl    %cl,%esi
  4017ab:	01 f0                	add    %esi,%eax
  4017ad:	89 44 24 14          	mov    %eax,0x14(%rsp)
  4017b1:	eb 08                	jmp    4017bb <phase_four+0xae>
  4017b3:	8b 44 24 10          	mov    0x10(%rsp),%eax
  4017b7:	89 44 24 14          	mov    %eax,0x14(%rsp)
  4017bb:	8b 44 24 14          	mov    0x14(%rsp),%eax
  4017bf:	39 44 24 0c          	cmp    %eax,0xc(%rsp)
  4017c3:	74 0b                	je     4017d0 <phase_four+0xc3>
  4017c5:	b8 00 00 00 00       	mov    $0x0,%eax
  4017ca:	ff 15 d8 2b 20 00    	callq  *0x202bd8(%rip)        # 6043a8 <explode_bomb>
  4017d0:	48 8b 44 24 18       	mov    0x18(%rsp),%rax
  4017d5:	64 48 33 04 25 28 00 	xor    %fs:0x28,%rax
  4017dc:	00 00 
  4017de:	74 05                	je     4017e5 <phase_four+0xd8>
  4017e0:	e8 9b f4 ff ff       	callq  400c80 <__stack_chk_fail@plt>
  4017e5:	48 83 c4 28          	add    $0x28,%rsp
  4017e9:	c3                   	retq   

00000000004017ea <sig_handler>:
  4017ea:	48 83 ec 08          	sub    $0x8,%rsp
  4017ee:	bf 00 00 00 00       	mov    $0x0,%edi
  4017f3:	e8 38 f5 ff ff       	callq  400d30 <time@plt>
  4017f8:	89 c7                	mov    %eax,%edi
  4017fa:	e8 d1 f4 ff ff       	callq  400cd0 <srand@plt>
  4017ff:	bf 58 33 40 00       	mov    $0x403358,%edi
  401804:	e8 47 f4 ff ff       	callq  400c50 <puts@plt>
  401809:	bf 03 00 00 00       	mov    $0x3,%edi
  40180e:	e8 ad f5 ff ff       	callq  400dc0 <sleep@plt>
  401813:	be 0c 2e 40 00       	mov    $0x402e0c,%esi
  401818:	bf 01 00 00 00       	mov    $0x1,%edi
  40181d:	b8 00 00 00 00       	mov    $0x0,%eax
  401822:	e8 39 f5 ff ff       	callq  400d60 <__printf_chk@plt>
  401827:	48 8b 3d 92 2f 20 00 	mov    0x202f92(%rip),%rdi        # 6047c0 <__TMC_END__>
  40182e:	e8 0d f5 ff ff       	callq  400d40 <fflush@plt>
  401833:	bf 01 00 00 00       	mov    $0x1,%edi
  401838:	e8 83 f5 ff ff       	callq  400dc0 <sleep@plt>
  40183d:	e8 8e f5 ff ff       	callq  400dd0 <rand@plt>
  401842:	89 c1                	mov    %eax,%ecx
  401844:	ba 1f 85 eb 51       	mov    $0x51eb851f,%edx
  401849:	f7 ea                	imul   %edx
  40184b:	c1 fa 05             	sar    $0x5,%edx
  40184e:	89 c8                	mov    %ecx,%eax
  401850:	c1 f8 1f             	sar    $0x1f,%eax
  401853:	29 c2                	sub    %eax,%edx
  401855:	6b d2 64             	imul   $0x64,%edx,%edx
  401858:	29 d1                	sub    %edx,%ecx
  40185a:	83 f9 3c             	cmp    $0x3c,%ecx
  40185d:	7e 15                	jle    401874 <sig_handler+0x8a>
  40185f:	bf 14 2e 40 00       	mov    $0x402e14,%edi
  401864:	e8 e7 f3 ff ff       	callq  400c50 <puts@plt>
  401869:	b8 00 00 00 00       	mov    $0x0,%eax
  40186e:	ff 15 34 2b 20 00    	callq  *0x202b34(%rip)        # 6043a8 <explode_bomb>
  401874:	bf 1c 2e 40 00       	mov    $0x402e1c,%edi
  401879:	e8 d2 f3 ff ff       	callq  400c50 <puts@plt>
  40187e:	bf 10 00 00 00       	mov    $0x10,%edi
  401883:	e8 08 f5 ff ff       	callq  400d90 <exit@plt>

0000000000401888 <invalid_phase>:
  401888:	48 83 ec 08          	sub    $0x8,%rsp
  40188c:	48 89 fa             	mov    %rdi,%rdx
  40188f:	be 24 2e 40 00       	mov    $0x402e24,%esi
  401894:	bf 01 00 00 00       	mov    $0x1,%edi
  401899:	b8 00 00 00 00       	mov    $0x0,%eax
  40189e:	e8 bd f4 ff ff       	callq  400d60 <__printf_chk@plt>
  4018a3:	bf 08 00 00 00       	mov    $0x8,%edi
  4018a8:	e8 e3 f4 ff ff       	callq  400d90 <exit@plt>

00000000004018ad <read_six_numbers>:
  4018ad:	48 83 ec 08          	sub    $0x8,%rsp
  4018b1:	48 89 f2             	mov    %rsi,%rdx
  4018b4:	48 8d 4e 04          	lea    0x4(%rsi),%rcx
  4018b8:	48 8d 46 14          	lea    0x14(%rsi),%rax
  4018bc:	50                   	push   %rax
  4018bd:	48 8d 46 10          	lea    0x10(%rsi),%rax
  4018c1:	50                   	push   %rax
  4018c2:	4c 8d 4e 0c          	lea    0xc(%rsi),%r9
  4018c6:	4c 8d 46 08          	lea    0x8(%rsi),%r8
  4018ca:	be 35 2e 40 00       	mov    $0x402e35,%esi
  4018cf:	b8 00 00 00 00       	mov    $0x0,%eax
  4018d4:	e8 77 f4 ff ff       	callq  400d50 <__isoc99_sscanf@plt>
  4018d9:	48 83 c4 10          	add    $0x10,%rsp
  4018dd:	83 f8 05             	cmp    $0x5,%eax
  4018e0:	7f 0b                	jg     4018ed <read_six_numbers+0x40>
  4018e2:	b8 00 00 00 00       	mov    $0x0,%eax
  4018e7:	ff 15 bb 2a 20 00    	callq  *0x202abb(%rip)        # 6043a8 <explode_bomb>
  4018ed:	48 83 c4 08          	add    $0x8,%rsp
  4018f1:	c3                   	retq   

00000000004018f2 <string_length>:
  4018f2:	80 3f 00             	cmpb   $0x0,(%rdi)
  4018f5:	74 13                	je     40190a <string_length+0x18>
  4018f7:	b8 00 00 00 00       	mov    $0x0,%eax
  4018fc:	48 83 c7 01          	add    $0x1,%rdi
  401900:	83 c0 01             	add    $0x1,%eax
  401903:	80 3f 00             	cmpb   $0x0,(%rdi)
  401906:	75 f4                	jne    4018fc <string_length+0xa>
  401908:	f3 c3                	repz retq 
  40190a:	b8 00 00 00 00       	mov    $0x0,%eax
  40190f:	c3                   	retq   

0000000000401910 <strings_not_equal>:
  401910:	41 54                	push   %r12
  401912:	55                   	push   %rbp
  401913:	53                   	push   %rbx
  401914:	48 89 fb             	mov    %rdi,%rbx
  401917:	48 89 f5             	mov    %rsi,%rbp
  40191a:	e8 d3 ff ff ff       	callq  4018f2 <string_length>
  40191f:	41 89 c4             	mov    %eax,%r12d
  401922:	48 89 ef             	mov    %rbp,%rdi
  401925:	e8 c8 ff ff ff       	callq  4018f2 <string_length>
  40192a:	ba 01 00 00 00       	mov    $0x1,%edx
  40192f:	41 39 c4             	cmp    %eax,%r12d
  401932:	75 3c                	jne    401970 <strings_not_equal+0x60>
  401934:	0f b6 03             	movzbl (%rbx),%eax
  401937:	84 c0                	test   %al,%al
  401939:	74 22                	je     40195d <strings_not_equal+0x4d>
  40193b:	3a 45 00             	cmp    0x0(%rbp),%al
  40193e:	74 07                	je     401947 <strings_not_equal+0x37>
  401940:	eb 22                	jmp    401964 <strings_not_equal+0x54>
  401942:	3a 45 00             	cmp    0x0(%rbp),%al
  401945:	75 24                	jne    40196b <strings_not_equal+0x5b>
  401947:	48 83 c3 01          	add    $0x1,%rbx
  40194b:	48 83 c5 01          	add    $0x1,%rbp
  40194f:	0f b6 03             	movzbl (%rbx),%eax
  401952:	84 c0                	test   %al,%al
  401954:	75 ec                	jne    401942 <strings_not_equal+0x32>
  401956:	ba 00 00 00 00       	mov    $0x0,%edx
  40195b:	eb 13                	jmp    401970 <strings_not_equal+0x60>
  40195d:	ba 00 00 00 00       	mov    $0x0,%edx
  401962:	eb 0c                	jmp    401970 <strings_not_equal+0x60>
  401964:	ba 01 00 00 00       	mov    $0x1,%edx
  401969:	eb 05                	jmp    401970 <strings_not_equal+0x60>
  40196b:	ba 01 00 00 00       	mov    $0x1,%edx
  401970:	89 d0                	mov    %edx,%eax
  401972:	5b                   	pop    %rbx
  401973:	5d                   	pop    %rbp
  401974:	41 5c                	pop    %r12
  401976:	c3                   	retq   

0000000000401977 <initialize_bomb>:
  401977:	53                   	push   %rbx
  401978:	48 81 ec 90 20 00 00 	sub    $0x2090,%rsp
  40197f:	64 48 8b 04 25 28 00 	mov    %fs:0x28,%rax
  401986:	00 00 
  401988:	48 89 84 24 88 20 00 	mov    %rax,0x2088(%rsp)
  40198f:	00 
  401990:	31 c0                	xor    %eax,%eax
  401992:	be ea 17 40 00       	mov    $0x4017ea,%esi
  401997:	bf 02 00 00 00       	mov    $0x2,%edi
  40199c:	e8 4f f3 ff ff       	callq  400cf0 <signal@plt>
  4019a1:	48 c7 05 74 2e 20 00 	movq   $0x401053,0x202e74(%rip)        # 604820 <call_phase_1>
  4019a8:	53 10 40 00 
  4019ac:	48 c7 05 61 2e 20 00 	movq   $0x401075,0x202e61(%rip)        # 604818 <call_phase_2>
  4019b3:	75 10 40 00 
  4019b7:	48 c7 05 4e 2e 20 00 	movq   $0x401129,0x202e4e(%rip)        # 604810 <call_phase_3>
  4019be:	29 11 40 00 
  4019c2:	48 c7 05 3b 2e 20 00 	movq   $0x40124d,0x202e3b(%rip)        # 604808 <call_phase_4>
  4019c9:	4d 12 40 00 
  4019cd:	48 c7 05 28 2e 20 00 	movq   $0x4012d6,0x202e28(%rip)        # 604800 <call_phase_5>
  4019d4:	d6 12 40 00 
  4019d8:	48 c7 05 15 2e 20 00 	movq   $0x40136e,0x202e15(%rip)        # 6047f8 <call_phase_6>
  4019df:	6e 13 40 00 
  4019e3:	be 40 00 00 00       	mov    $0x40,%esi
  4019e8:	48 89 e7             	mov    %rsp,%rdi
  4019eb:	e8 90 f3 ff ff       	callq  400d80 <gethostname@plt>
  4019f0:	85 c0                	test   %eax,%eax
  4019f2:	74 14                	je     401a08 <initialize_bomb+0x91>
  4019f4:	bf 90 33 40 00       	mov    $0x403390,%edi
  4019f9:	e8 52 f2 ff ff       	callq  400c50 <puts@plt>
  4019fe:	bf 08 00 00 00       	mov    $0x8,%edi
  401a03:	e8 88 f3 ff ff       	callq  400d90 <exit@plt>
  401a08:	be 40 00 00 00       	mov    $0x40,%esi
  401a0d:	48 8d 7c 24 40       	lea    0x40(%rsp),%rdi
  401a12:	e8 59 f2 ff ff       	callq  400c70 <getdomainname@plt>
  401a17:	85 c0                	test   %eax,%eax
  401a19:	75 16                	jne    401a31 <initialize_bomb+0xba>
  401a1b:	48 8b 3d 9e 29 20 00 	mov    0x20299e(%rip),%rdi        # 6043c0 <host_table>
  401a22:	bb c8 43 60 00       	mov    $0x6043c8,%ebx
  401a27:	48 85 ff             	test   %rdi,%rdi
  401a2a:	75 19                	jne    401a45 <initialize_bomb+0xce>
  401a2c:	e9 d9 00 00 00       	jmpq   401b0a <initialize_bomb+0x193>
  401a31:	bf c8 33 40 00       	mov    $0x4033c8,%edi
  401a36:	e8 15 f2 ff ff       	callq  400c50 <puts@plt>
  401a3b:	bf 08 00 00 00       	mov    $0x8,%edi
  401a40:	e8 4b f3 ff ff       	callq  400d90 <exit@plt>
  401a45:	48 89 e6             	mov    %rsp,%rsi
  401a48:	e8 d3 f1 ff ff       	callq  400c20 <strcasecmp@plt>
  401a4d:	85 c0                	test   %eax,%eax
  401a4f:	0f 84 c9 00 00 00    	je     401b1e <initialize_bomb+0x1a7>
  401a55:	48 83 c3 08          	add    $0x8,%rbx
  401a59:	48 8b 7b f8          	mov    -0x8(%rbx),%rdi
  401a5d:	48 85 ff             	test   %rdi,%rdi
  401a60:	75 e3                	jne    401a45 <initialize_bomb+0xce>
  401a62:	e9 a3 00 00 00       	jmpq   401b0a <initialize_bomb+0x193>
  401a67:	48 8d 94 24 80 00 00 	lea    0x80(%rsp),%rdx
  401a6e:	00 
  401a6f:	be 47 2e 40 00       	mov    $0x402e47,%esi
  401a74:	bf 01 00 00 00       	mov    $0x1,%edi
  401a79:	b8 00 00 00 00       	mov    $0x0,%eax
  401a7e:	e8 dd f2 ff ff       	callq  400d60 <__printf_chk@plt>
  401a83:	bf 08 00 00 00       	mov    $0x8,%edi
  401a88:	e8 03 f3 ff ff       	callq  400d90 <exit@plt>
  401a8d:	80 7c 24 40 65       	cmpb   $0x65,0x40(%rsp)
  401a92:	0f 94 c2             	sete   %dl
  401a95:	80 7c 24 41 65       	cmpb   $0x65,0x41(%rsp)
  401a9a:	0f 94 c0             	sete   %al
  401a9d:	21 d0                	and    %edx,%eax
  401a9f:	80 7c 24 42 63       	cmpb   $0x63,0x42(%rsp)
  401aa4:	0f 94 c2             	sete   %dl
  401aa7:	21 d0                	and    %edx,%eax
  401aa9:	80 7c 24 43 73       	cmpb   $0x73,0x43(%rsp)
  401aae:	0f 94 c2             	sete   %dl
  401ab1:	21 d0                	and    %edx,%eax
  401ab3:	80 7c 24 44 2e       	cmpb   $0x2e,0x44(%rsp)
  401ab8:	0f 94 c2             	sete   %dl
  401abb:	84 d0                	test   %dl,%al
  401abd:	74 07                	je     401ac6 <initialize_bomb+0x14f>
  401abf:	80 7c 24 45 6c       	cmpb   $0x6c,0x45(%rsp)
  401ac4:	74 72                	je     401b38 <initialize_bomb+0x1c1>
  401ac6:	48 c7 05 4f 2d 20 00 	movq   $0x401053,0x202d4f(%rip)        # 604820 <call_phase_1>
  401acd:	53 10 40 00 
  401ad1:	48 c7 05 3c 2d 20 00 	movq   $0x401549,0x202d3c(%rip)        # 604818 <call_phase_2>
  401ad8:	49 15 40 00 
  401adc:	48 c7 05 29 2d 20 00 	movq   $0x40163a,0x202d29(%rip)        # 604810 <call_phase_3>
  401ae3:	3a 16 40 00 
  401ae7:	48 c7 05 16 2d 20 00 	movq   $0x40170d,0x202d16(%rip)        # 604808 <call_phase_4>
  401aee:	0d 17 40 00 
  401af2:	48 c7 05 03 2d 20 00 	movq   $0x401621,0x202d03(%rip)        # 604800 <call_phase_5>
  401af9:	21 16 40 00 
  401afd:	48 c7 05 f0 2c 20 00 	movq   $0x4016e8,0x202cf0(%rip)        # 6047f8 <call_phase_6>
  401b04:	e8 16 40 00 
  401b08:	eb 2e                	jmp    401b38 <initialize_bomb+0x1c1>
  401b0a:	bf 00 34 40 00       	mov    $0x403400,%edi
  401b0f:	e8 3c f1 ff ff       	callq  400c50 <puts@plt>
  401b14:	bf 08 00 00 00       	mov    $0x8,%edi
  401b19:	e8 72 f2 ff ff       	callq  400d90 <exit@plt>
  401b1e:	48 8d bc 24 80 00 00 	lea    0x80(%rsp),%rdi
  401b25:	00 
  401b26:	e8 c9 0d 00 00       	callq  4028f4 <init_driver>
  401b2b:	85 c0                	test   %eax,%eax
  401b2d:	0f 89 5a ff ff ff    	jns    401a8d <initialize_bomb+0x116>
  401b33:	e9 2f ff ff ff       	jmpq   401a67 <initialize_bomb+0xf0>
  401b38:	48 8b 84 24 88 20 00 	mov    0x2088(%rsp),%rax
  401b3f:	00 
  401b40:	64 48 33 04 25 28 00 	xor    %fs:0x28,%rax
  401b47:	00 00 
  401b49:	74 05                	je     401b50 <initialize_bomb+0x1d9>
  401b4b:	e8 30 f1 ff ff       	callq  400c80 <__stack_chk_fail@plt>
  401b50:	48 81 c4 90 20 00 00 	add    $0x2090,%rsp
  401b57:	5b                   	pop    %rbx
  401b58:	c3                   	retq   

0000000000401b59 <initialize_bomb_solve>:
  401b59:	f3 c3                	repz retq 

0000000000401b5b <blank_line>:
  401b5b:	55                   	push   %rbp
  401b5c:	53                   	push   %rbx
  401b5d:	48 83 ec 08          	sub    $0x8,%rsp
  401b61:	48 89 fd             	mov    %rdi,%rbp
  401b64:	eb 17                	jmp    401b7d <blank_line+0x22>
  401b66:	e8 75 f2 ff ff       	callq  400de0 <__ctype_b_loc@plt>
  401b6b:	48 83 c5 01          	add    $0x1,%rbp
  401b6f:	48 0f be db          	movsbq %bl,%rbx
  401b73:	48 8b 00             	mov    (%rax),%rax
  401b76:	f6 44 58 01 20       	testb  $0x20,0x1(%rax,%rbx,2)
  401b7b:	74 0f                	je     401b8c <blank_line+0x31>
  401b7d:	0f b6 5d 00          	movzbl 0x0(%rbp),%ebx
  401b81:	84 db                	test   %bl,%bl
  401b83:	75 e1                	jne    401b66 <blank_line+0xb>
  401b85:	b8 01 00 00 00       	mov    $0x1,%eax
  401b8a:	eb 05                	jmp    401b91 <blank_line+0x36>
  401b8c:	b8 00 00 00 00       	mov    $0x0,%eax
  401b91:	48 83 c4 08          	add    $0x8,%rsp
  401b95:	5b                   	pop    %rbx
  401b96:	5d                   	pop    %rbp
  401b97:	c3                   	retq   

0000000000401b98 <skip>:
  401b98:	53                   	push   %rbx
  401b99:	48 63 05 50 2c 20 00 	movslq 0x202c50(%rip),%rax        # 6047f0 <num_input_strings>
  401ba0:	48 8d 3c 80          	lea    (%rax,%rax,4),%rdi
  401ba4:	48 c1 e7 04          	shl    $0x4,%rdi
  401ba8:	48 81 c7 40 48 60 00 	add    $0x604840,%rdi
  401baf:	48 8b 15 72 2c 20 00 	mov    0x202c72(%rip),%rdx        # 604828 <infile>
  401bb6:	be 50 00 00 00       	mov    $0x50,%esi
  401bbb:	e8 20 f1 ff ff       	callq  400ce0 <fgets@plt>
  401bc0:	48 89 c3             	mov    %rax,%rbx
  401bc3:	48 85 c0             	test   %rax,%rax
  401bc6:	74 0c                	je     401bd4 <skip+0x3c>
  401bc8:	48 89 c7             	mov    %rax,%rdi
  401bcb:	e8 8b ff ff ff       	callq  401b5b <blank_line>
  401bd0:	85 c0                	test   %eax,%eax
  401bd2:	75 c5                	jne    401b99 <skip+0x1>
  401bd4:	48 89 d8             	mov    %rbx,%rax
  401bd7:	5b                   	pop    %rbx
  401bd8:	c3                   	retq   

0000000000401bd9 <read_line>:
  401bd9:	53                   	push   %rbx
  401bda:	b8 00 00 00 00       	mov    $0x0,%eax
  401bdf:	e8 b4 ff ff ff       	callq  401b98 <skip>
  401be4:	48 85 c0             	test   %rax,%rax
  401be7:	75 6e                	jne    401c57 <read_line+0x7e>
  401be9:	48 8b 05 e0 2b 20 00 	mov    0x202be0(%rip),%rax        # 6047d0 <stdin@@GLIBC_2.2.5>
  401bf0:	48 39 05 31 2c 20 00 	cmp    %rax,0x202c31(%rip)        # 604828 <infile>
  401bf7:	75 14                	jne    401c0d <read_line+0x34>
  401bf9:	bf 61 2e 40 00       	mov    $0x402e61,%edi
  401bfe:	e8 4d f0 ff ff       	callq  400c50 <puts@plt>
  401c03:	bf 08 00 00 00       	mov    $0x8,%edi
  401c08:	e8 83 f1 ff ff       	callq  400d90 <exit@plt>
  401c0d:	bf 7f 2e 40 00       	mov    $0x402e7f,%edi
  401c12:	e8 f9 ef ff ff       	callq  400c10 <getenv@plt>
  401c17:	48 85 c0             	test   %rax,%rax
  401c1a:	74 0a                	je     401c26 <read_line+0x4d>
  401c1c:	bf 00 00 00 00       	mov    $0x0,%edi
  401c21:	e8 6a f1 ff ff       	callq  400d90 <exit@plt>
  401c26:	48 8b 05 a3 2b 20 00 	mov    0x202ba3(%rip),%rax        # 6047d0 <stdin@@GLIBC_2.2.5>
  401c2d:	48 89 05 f4 2b 20 00 	mov    %rax,0x202bf4(%rip)        # 604828 <infile>
  401c34:	b8 00 00 00 00       	mov    $0x0,%eax
  401c39:	e8 5a ff ff ff       	callq  401b98 <skip>
  401c3e:	48 85 c0             	test   %rax,%rax
  401c41:	75 14                	jne    401c57 <read_line+0x7e>
  401c43:	bf 61 2e 40 00       	mov    $0x402e61,%edi
  401c48:	e8 03 f0 ff ff       	callq  400c50 <puts@plt>
  401c4d:	bf 00 00 00 00       	mov    $0x0,%edi
  401c52:	e8 39 f1 ff ff       	callq  400d90 <exit@plt>
  401c57:	48 63 05 92 2b 20 00 	movslq 0x202b92(%rip),%rax        # 6047f0 <num_input_strings>
  401c5e:	48 8d 04 80          	lea    (%rax,%rax,4),%rax
  401c62:	48 c1 e0 04          	shl    $0x4,%rax
  401c66:	48 8d b8 40 48 60 00 	lea    0x604840(%rax),%rdi
  401c6d:	b8 00 00 00 00       	mov    $0x0,%eax
  401c72:	48 c7 c1 ff ff ff ff 	mov    $0xffffffffffffffff,%rcx
  401c79:	f2 ae                	repnz scas %es:(%rdi),%al
  401c7b:	48 f7 d1             	not    %rcx
  401c7e:	48 8d 59 ff          	lea    -0x1(%rcx),%rbx
  401c82:	83 fb 4e             	cmp    $0x4e,%ebx
  401c85:	7e 50                	jle    401cd7 <read_line+0xfe>
  401c87:	bf 8a 2e 40 00       	mov    $0x402e8a,%edi
  401c8c:	e8 bf ef ff ff       	callq  400c50 <puts@plt>
  401c91:	8b 05 59 2b 20 00    	mov    0x202b59(%rip),%eax        # 6047f0 <num_input_strings>
  401c97:	8d 50 01             	lea    0x1(%rax),%edx
  401c9a:	89 15 50 2b 20 00    	mov    %edx,0x202b50(%rip)        # 6047f0 <num_input_strings>
  401ca0:	48 98                	cltq   
  401ca2:	48 8d 04 80          	lea    (%rax,%rax,4),%rax
  401ca6:	48 c1 e0 04          	shl    $0x4,%rax
  401caa:	48 bf 2a 2a 2a 74 72 	movabs $0x636e7572742a2a2a,%rdi
  401cb1:	75 6e 63 
  401cb4:	48 89 b8 40 48 60 00 	mov    %rdi,0x604840(%rax)
  401cbb:	48 be 61 74 65 64 2a 	movabs $0x2a2a2a64657461,%rsi
  401cc2:	2a 2a 00 
  401cc5:	48 89 b0 48 48 60 00 	mov    %rsi,0x604848(%rax)
  401ccc:	b8 00 00 00 00       	mov    $0x0,%eax
  401cd1:	ff 15 d1 26 20 00    	callq  *0x2026d1(%rip)        # 6043a8 <explode_bomb>
  401cd7:	8b 15 13 2b 20 00    	mov    0x202b13(%rip),%edx        # 6047f0 <num_input_strings>
  401cdd:	83 eb 01             	sub    $0x1,%ebx
  401ce0:	48 63 db             	movslq %ebx,%rbx
  401ce3:	48 63 c2             	movslq %edx,%rax
  401ce6:	48 8d 34 85 00 00 00 	lea    0x0(,%rax,4),%rsi
  401ced:	00 
  401cee:	48 8d 0c 06          	lea    (%rsi,%rax,1),%rcx
  401cf2:	48 c1 e1 04          	shl    $0x4,%rcx
  401cf6:	c6 84 0b 40 48 60 00 	movb   $0x0,0x604840(%rbx,%rcx,1)
  401cfd:	00 
  401cfe:	83 c2 01             	add    $0x1,%edx
  401d01:	89 15 e9 2a 20 00    	mov    %edx,0x202ae9(%rip)        # 6047f0 <num_input_strings>
  401d07:	48 89 c8             	mov    %rcx,%rax
  401d0a:	48 05 40 48 60 00    	add    $0x604840,%rax
  401d10:	5b                   	pop    %rbx
  401d11:	c3                   	retq   

0000000000401d12 <send_msg>:
  401d12:	48 81 ec 18 40 00 00 	sub    $0x4018,%rsp
  401d19:	41 89 f8             	mov    %edi,%r8d
  401d1c:	64 48 8b 04 25 28 00 	mov    %fs:0x28,%rax
  401d23:	00 00 
  401d25:	48 89 84 24 08 40 00 	mov    %rax,0x4008(%rsp)
  401d2c:	00 
  401d2d:	31 c0                	xor    %eax,%eax
  401d2f:	8b 35 bb 2a 20 00    	mov    0x202abb(%rip),%esi        # 6047f0 <num_input_strings>
  401d35:	8d 46 ff             	lea    -0x1(%rsi),%eax
  401d38:	48 98                	cltq   
  401d3a:	48 8d 14 80          	lea    (%rax,%rax,4),%rdx
  401d3e:	48 c1 e2 04          	shl    $0x4,%rdx
  401d42:	48 81 c2 40 48 60 00 	add    $0x604840,%rdx
  401d49:	b8 00 00 00 00       	mov    $0x0,%eax
  401d4e:	48 c7 c1 ff ff ff ff 	mov    $0xffffffffffffffff,%rcx
  401d55:	48 89 d7             	mov    %rdx,%rdi
  401d58:	f2 ae                	repnz scas %es:(%rdi),%al
  401d5a:	48 f7 d1             	not    %rcx
  401d5d:	48 83 c1 63          	add    $0x63,%rcx
  401d61:	48 81 f9 00 20 00 00 	cmp    $0x2000,%rcx
  401d68:	76 19                	jbe    401d83 <send_msg+0x71>
  401d6a:	be 38 34 40 00       	mov    $0x403438,%esi
  401d6f:	bf 01 00 00 00       	mov    $0x1,%edi
  401d74:	e8 e7 ef ff ff       	callq  400d60 <__printf_chk@plt>
  401d79:	bf 08 00 00 00       	mov    $0x8,%edi
  401d7e:	e8 0d f0 ff ff       	callq  400d90 <exit@plt>
  401d83:	45 85 c0             	test   %r8d,%r8d
  401d86:	41 b9 ad 2e 40 00    	mov    $0x402ead,%r9d
  401d8c:	b8 a5 2e 40 00       	mov    $0x402ea5,%eax
  401d91:	4c 0f 45 c8          	cmovne %rax,%r9
  401d95:	52                   	push   %rdx
  401d96:	56                   	push   %rsi
  401d97:	44 8b 05 ee 25 20 00 	mov    0x2025ee(%rip),%r8d        # 60438c <bomb_id>
  401d9e:	b9 b6 2e 40 00       	mov    $0x402eb6,%ecx
  401da3:	ba 00 20 00 00       	mov    $0x2000,%edx
  401da8:	be 01 00 00 00       	mov    $0x1,%esi
  401dad:	48 8d 7c 24 10       	lea    0x10(%rsp),%rdi
  401db2:	b8 00 00 00 00       	mov    $0x0,%eax
  401db7:	e8 34 f0 ff ff       	callq  400df0 <__sprintf_chk@plt>
  401dbc:	4c 8d 84 24 10 20 00 	lea    0x2010(%rsp),%r8
  401dc3:	00 
  401dc4:	b9 00 00 00 00       	mov    $0x0,%ecx
  401dc9:	48 8d 54 24 10       	lea    0x10(%rsp),%rdx
  401dce:	be 70 43 60 00       	mov    $0x604370,%esi
  401dd3:	bf 85 43 60 00       	mov    $0x604385,%edi
  401dd8:	e8 ec 0c 00 00       	callq  402ac9 <driver_post>
  401ddd:	48 83 c4 10          	add    $0x10,%rsp
  401de1:	85 c0                	test   %eax,%eax
  401de3:	79 17                	jns    401dfc <send_msg+0xea>
  401de5:	48 8d bc 24 00 20 00 	lea    0x2000(%rsp),%rdi
  401dec:	00 
  401ded:	e8 5e ee ff ff       	callq  400c50 <puts@plt>
  401df2:	bf 00 00 00 00       	mov    $0x0,%edi
  401df7:	e8 94 ef ff ff       	callq  400d90 <exit@plt>
  401dfc:	48 8b 84 24 08 40 00 	mov    0x4008(%rsp),%rax
  401e03:	00 
  401e04:	64 48 33 04 25 28 00 	xor    %fs:0x28,%rax
  401e0b:	00 00 
  401e0d:	74 05                	je     401e14 <send_msg+0x102>
  401e0f:	e8 6c ee ff ff       	callq  400c80 <__stack_chk_fail@plt>
  401e14:	48 81 c4 18 40 00 00 	add    $0x4018,%rsp
  401e1b:	c3                   	retq   

0000000000401e1c <explode_it>:
  401e1c:	48 83 ec 08          	sub    $0x8,%rsp
  401e20:	bf c2 2e 40 00       	mov    $0x402ec2,%edi
  401e25:	e8 26 ee ff ff       	callq  400c50 <puts@plt>
  401e2a:	bf cb 2e 40 00       	mov    $0x402ecb,%edi
  401e2f:	e8 1c ee ff ff       	callq  400c50 <puts@plt>
  401e34:	bf 00 00 00 00       	mov    $0x0,%edi
  401e39:	e8 d4 fe ff ff       	callq  401d12 <send_msg>
  401e3e:	bf 60 34 40 00       	mov    $0x403460,%edi
  401e43:	e8 08 ee ff ff       	callq  400c50 <puts@plt>
  401e48:	bf 08 00 00 00       	mov    $0x8,%edi
  401e4d:	e8 3e ef ff ff       	callq  400d90 <exit@plt>

0000000000401e52 <kaboom>:
  401e52:	48 83 ec 08          	sub    $0x8,%rsp
  401e56:	bf c2 2e 40 00       	mov    $0x402ec2,%edi
  401e5b:	e8 f0 ed ff ff       	callq  400c50 <puts@plt>
  401e60:	bf cb 2e 40 00       	mov    $0x402ecb,%edi
  401e65:	e8 e6 ed ff ff       	callq  400c50 <puts@plt>
  401e6a:	bf 00 00 00 00       	mov    $0x0,%edi
  401e6f:	e8 9e fe ff ff       	callq  401d12 <send_msg>
  401e74:	bf 60 34 40 00       	mov    $0x403460,%edi
  401e79:	e8 d2 ed ff ff       	callq  400c50 <puts@plt>
  401e7e:	bf 08 00 00 00       	mov    $0x8,%edi
  401e83:	e8 08 ef ff ff       	callq  400d90 <exit@plt>

0000000000401e88 <phase_defused>:
  401e88:	48 83 ec 78          	sub    $0x78,%rsp
  401e8c:	64 48 8b 04 25 28 00 	mov    %fs:0x28,%rax
  401e93:	00 00 
  401e95:	48 89 44 24 68       	mov    %rax,0x68(%rsp)
  401e9a:	31 c0                	xor    %eax,%eax
  401e9c:	8b 15 fe 24 20 00    	mov    0x2024fe(%rip),%edx        # 6043a0 <count.5752>
  401ea2:	89 d1                	mov    %edx,%ecx
  401ea4:	c1 f9 1f             	sar    $0x1f,%ecx
  401ea7:	c1 e9 1e             	shr    $0x1e,%ecx
  401eaa:	8d 04 0a             	lea    (%rdx,%rcx,1),%eax
  401ead:	83 e0 03             	and    $0x3,%eax
  401eb0:	29 c8                	sub    %ecx,%eax
  401eb2:	83 f8 01             	cmp    $0x1,%eax
  401eb5:	74 24                	je     401edb <phase_defused+0x53>
  401eb7:	83 f8 01             	cmp    $0x1,%eax
  401eba:	7f 06                	jg     401ec2 <phase_defused+0x3a>
  401ebc:	85 c0                	test   %eax,%eax
  401ebe:	74 0e                	je     401ece <phase_defused+0x46>
  401ec0:	eb 3e                	jmp    401f00 <phase_defused+0x78>
  401ec2:	83 f8 02             	cmp    $0x2,%eax
  401ec5:	74 21                	je     401ee8 <phase_defused+0x60>
  401ec7:	83 f8 03             	cmp    $0x3,%eax
  401eca:	74 29                	je     401ef5 <phase_defused+0x6d>
  401ecc:	eb 32                	jmp    401f00 <phase_defused+0x78>
  401ece:	48 c7 05 cf 24 20 00 	movq   $0x401e1c,0x2024cf(%rip)        # 6043a8 <explode_bomb>
  401ed5:	1c 1e 40 00 
  401ed9:	eb 25                	jmp    401f00 <phase_defused+0x78>
  401edb:	48 c7 05 c2 24 20 00 	movq   $0x401e20,0x2024c2(%rip)        # 6043a8 <explode_bomb>
  401ee2:	20 1e 40 00 
  401ee6:	eb 18                	jmp    401f00 <phase_defused+0x78>
  401ee8:	48 c7 05 b5 24 20 00 	movq   $0x401e56,0x2024b5(%rip)        # 6043a8 <explode_bomb>
  401eef:	56 1e 40 00 
  401ef3:	eb 0b                	jmp    401f00 <phase_defused+0x78>
  401ef5:	48 c7 05 a8 24 20 00 	movq   $0x401e1c,0x2024a8(%rip)        # 6043a8 <explode_bomb>
  401efc:	1c 1e 40 00 
  401f00:	83 c2 01             	add    $0x1,%edx
  401f03:	89 15 97 24 20 00    	mov    %edx,0x202497(%rip)        # 6043a0 <count.5752>
  401f09:	bf 01 00 00 00       	mov    $0x1,%edi
  401f0e:	e8 ff fd ff ff       	callq  401d12 <send_msg>
  401f13:	83 3d d6 28 20 00 06 	cmpl   $0x6,0x2028d6(%rip)        # 6047f0 <num_input_strings>
  401f1a:	75 6d                	jne    401f89 <phase_defused+0x101>
  401f1c:	4c 8d 44 24 10       	lea    0x10(%rsp),%r8
  401f21:	48 8d 4c 24 0c       	lea    0xc(%rsp),%rcx
  401f26:	48 8d 54 24 08       	lea    0x8(%rsp),%rdx
  401f2b:	be e2 2e 40 00       	mov    $0x402ee2,%esi
  401f30:	bf 30 49 60 00       	mov    $0x604930,%edi
  401f35:	b8 00 00 00 00       	mov    $0x0,%eax
  401f3a:	e8 11 ee ff ff       	callq  400d50 <__isoc99_sscanf@plt>
  401f3f:	83 f8 03             	cmp    $0x3,%eax
  401f42:	75 31                	jne    401f75 <phase_defused+0xed>
  401f44:	be eb 2e 40 00       	mov    $0x402eeb,%esi
  401f49:	48 8d 7c 24 10       	lea    0x10(%rsp),%rdi
  401f4e:	e8 bd f9 ff ff       	callq  401910 <strings_not_equal>
  401f53:	85 c0                	test   %eax,%eax
  401f55:	75 1e                	jne    401f75 <phase_defused+0xed>
  401f57:	bf 88 34 40 00       	mov    $0x403488,%edi
  401f5c:	e8 ef ec ff ff       	callq  400c50 <puts@plt>
  401f61:	bf b0 34 40 00       	mov    $0x4034b0,%edi
  401f66:	e8 e5 ec ff ff       	callq  400c50 <puts@plt>
  401f6b:	b8 00 00 00 00       	mov    $0x0,%eax
  401f70:	e8 77 f5 ff ff       	callq  4014ec <secret_phase>
  401f75:	bf e8 34 40 00       	mov    $0x4034e8,%edi
  401f7a:	e8 d1 ec ff ff       	callq  400c50 <puts@plt>
  401f7f:	bf 18 35 40 00       	mov    $0x403518,%edi
  401f84:	e8 c7 ec ff ff       	callq  400c50 <puts@plt>
  401f89:	48 8b 44 24 68       	mov    0x68(%rsp),%rax
  401f8e:	64 48 33 04 25 28 00 	xor    %fs:0x28,%rax
  401f95:	00 00 
  401f97:	74 05                	je     401f9e <phase_defused+0x116>
  401f99:	e8 e2 ec ff ff       	callq  400c80 <__stack_chk_fail@plt>
  401f9e:	48 83 c4 78          	add    $0x78,%rsp
  401fa2:	c3                   	retq   

0000000000401fa3 <sigalrm_handler>:
  401fa3:	48 83 ec 08          	sub    $0x8,%rsp
  401fa7:	b9 00 00 00 00       	mov    $0x0,%ecx
  401fac:	ba 60 35 40 00       	mov    $0x403560,%edx
  401fb1:	be 01 00 00 00       	mov    $0x1,%esi
  401fb6:	48 8b 3d 23 28 20 00 	mov    0x202823(%rip),%rdi        # 6047e0 <stderr@@GLIBC_2.2.5>
  401fbd:	b8 00 00 00 00       	mov    $0x0,%eax
  401fc2:	e8 e9 ed ff ff       	callq  400db0 <__fprintf_chk@plt>
  401fc7:	bf 01 00 00 00       	mov    $0x1,%edi
  401fcc:	e8 bf ed ff ff       	callq  400d90 <exit@plt>

0000000000401fd1 <rio_readlineb>:
  401fd1:	41 56                	push   %r14
  401fd3:	41 55                	push   %r13
  401fd5:	41 54                	push   %r12
  401fd7:	55                   	push   %rbp
  401fd8:	53                   	push   %rbx
  401fd9:	48 83 ec 10          	sub    $0x10,%rsp
  401fdd:	48 89 fb             	mov    %rdi,%rbx
  401fe0:	49 89 f5             	mov    %rsi,%r13
  401fe3:	49 89 d6             	mov    %rdx,%r14
  401fe6:	64 48 8b 04 25 28 00 	mov    %fs:0x28,%rax
  401fed:	00 00 
  401fef:	48 89 44 24 08       	mov    %rax,0x8(%rsp)
  401ff4:	31 c0                	xor    %eax,%eax
  401ff6:	41 bc 01 00 00 00    	mov    $0x1,%r12d
  401ffc:	48 8d 6f 10          	lea    0x10(%rdi),%rbp
  402000:	48 83 fa 01          	cmp    $0x1,%rdx
  402004:	77 2c                	ja     402032 <rio_readlineb+0x61>
  402006:	eb 6d                	jmp    402075 <rio_readlineb+0xa4>
  402008:	ba 00 20 00 00       	mov    $0x2000,%edx
  40200d:	48 89 ee             	mov    %rbp,%rsi
  402010:	8b 3b                	mov    (%rbx),%edi
  402012:	e8 99 ec ff ff       	callq  400cb0 <read@plt>
  402017:	89 43 04             	mov    %eax,0x4(%rbx)
  40201a:	85 c0                	test   %eax,%eax
  40201c:	79 0c                	jns    40202a <rio_readlineb+0x59>
  40201e:	e8 0d ec ff ff       	callq  400c30 <__errno_location@plt>
  402023:	83 38 04             	cmpl   $0x4,(%rax)
  402026:	74 0a                	je     402032 <rio_readlineb+0x61>
  402028:	eb 6c                	jmp    402096 <rio_readlineb+0xc5>
  40202a:	85 c0                	test   %eax,%eax
  40202c:	74 71                	je     40209f <rio_readlineb+0xce>
  40202e:	48 89 6b 08          	mov    %rbp,0x8(%rbx)
  402032:	8b 43 04             	mov    0x4(%rbx),%eax
  402035:	85 c0                	test   %eax,%eax
  402037:	7e cf                	jle    402008 <rio_readlineb+0x37>
  402039:	48 8b 53 08          	mov    0x8(%rbx),%rdx
  40203d:	0f b6 0a             	movzbl (%rdx),%ecx
  402040:	88 4c 24 07          	mov    %cl,0x7(%rsp)
  402044:	48 83 c2 01          	add    $0x1,%rdx
  402048:	48 89 53 08          	mov    %rdx,0x8(%rbx)
  40204c:	83 e8 01             	sub    $0x1,%eax
  40204f:	89 43 04             	mov    %eax,0x4(%rbx)
  402052:	49 83 c5 01          	add    $0x1,%r13
  402056:	41 88 4d ff          	mov    %cl,-0x1(%r13)
  40205a:	80 f9 0a             	cmp    $0xa,%cl
  40205d:	75 0a                	jne    402069 <rio_readlineb+0x98>
  40205f:	eb 14                	jmp    402075 <rio_readlineb+0xa4>
  402061:	41 83 fc 01          	cmp    $0x1,%r12d
  402065:	75 0e                	jne    402075 <rio_readlineb+0xa4>
  402067:	eb 16                	jmp    40207f <rio_readlineb+0xae>
  402069:	41 83 c4 01          	add    $0x1,%r12d
  40206d:	49 63 c4             	movslq %r12d,%rax
  402070:	4c 39 f0             	cmp    %r14,%rax
  402073:	72 bd                	jb     402032 <rio_readlineb+0x61>
  402075:	41 c6 45 00 00       	movb   $0x0,0x0(%r13)
  40207a:	49 63 c4             	movslq %r12d,%rax
  40207d:	eb 05                	jmp    402084 <rio_readlineb+0xb3>
  40207f:	b8 00 00 00 00       	mov    $0x0,%eax
  402084:	48 8b 4c 24 08       	mov    0x8(%rsp),%rcx
  402089:	64 48 33 0c 25 28 00 	xor    %fs:0x28,%rcx
  402090:	00 00 
  402092:	74 22                	je     4020b6 <rio_readlineb+0xe5>
  402094:	eb 1b                	jmp    4020b1 <rio_readlineb+0xe0>
  402096:	48 c7 c0 ff ff ff ff 	mov    $0xffffffffffffffff,%rax
  40209d:	eb 05                	jmp    4020a4 <rio_readlineb+0xd3>
  40209f:	b8 00 00 00 00       	mov    $0x0,%eax
  4020a4:	85 c0                	test   %eax,%eax
  4020a6:	74 b9                	je     402061 <rio_readlineb+0x90>
  4020a8:	48 c7 c0 ff ff ff ff 	mov    $0xffffffffffffffff,%rax
  4020af:	eb d3                	jmp    402084 <rio_readlineb+0xb3>
  4020b1:	e8 ca eb ff ff       	callq  400c80 <__stack_chk_fail@plt>
  4020b6:	48 83 c4 10          	add    $0x10,%rsp
  4020ba:	5b                   	pop    %rbx
  4020bb:	5d                   	pop    %rbp
  4020bc:	41 5c                	pop    %r12
  4020be:	41 5d                	pop    %r13
  4020c0:	41 5e                	pop    %r14
  4020c2:	c3                   	retq   

00000000004020c3 <submitr>:
  4020c3:	41 57                	push   %r15
  4020c5:	41 56                	push   %r14
  4020c7:	41 55                	push   %r13
  4020c9:	41 54                	push   %r12
  4020cb:	55                   	push   %rbp
  4020cc:	53                   	push   %rbx
  4020cd:	48 81 ec 68 a0 00 00 	sub    $0xa068,%rsp
  4020d4:	49 89 fd             	mov    %rdi,%r13
  4020d7:	89 f5                	mov    %esi,%ebp
  4020d9:	48 89 14 24          	mov    %rdx,(%rsp)
  4020dd:	48 89 4c 24 08       	mov    %rcx,0x8(%rsp)
  4020e2:	4c 89 44 24 18       	mov    %r8,0x18(%rsp)
  4020e7:	4c 89 4c 24 10       	mov    %r9,0x10(%rsp)
  4020ec:	48 8b 9c 24 a0 a0 00 	mov    0xa0a0(%rsp),%rbx
  4020f3:	00 
  4020f4:	4c 8b bc 24 a8 a0 00 	mov    0xa0a8(%rsp),%r15
  4020fb:	00 
  4020fc:	64 48 8b 04 25 28 00 	mov    %fs:0x28,%rax
  402103:	00 00 
  402105:	48 89 84 24 58 a0 00 	mov    %rax,0xa058(%rsp)
  40210c:	00 
  40210d:	31 c0                	xor    %eax,%eax
  40210f:	c7 44 24 2c 00 00 00 	movl   $0x0,0x2c(%rsp)
  402116:	00 
  402117:	ba 00 00 00 00       	mov    $0x0,%edx
  40211c:	be 01 00 00 00       	mov    $0x1,%esi
  402121:	bf 02 00 00 00       	mov    $0x2,%edi
  402126:	e8 d5 ec ff ff       	callq  400e00 <socket@plt>
  40212b:	85 c0                	test   %eax,%eax
  40212d:	79 50                	jns    40217f <submitr+0xbc>
  40212f:	48 b8 45 72 72 6f 72 	movabs $0x43203a726f727245,%rax
  402136:	3a 20 43 
  402139:	49 89 07             	mov    %rax,(%r15)
  40213c:	48 b8 6c 69 65 6e 74 	movabs $0x6e7520746e65696c,%rax
  402143:	20 75 6e 
  402146:	49 89 47 08          	mov    %rax,0x8(%r15)
  40214a:	48 b8 61 62 6c 65 20 	movabs $0x206f7420656c6261,%rax
  402151:	74 6f 20 
  402154:	49 89 47 10          	mov    %rax,0x10(%r15)
  402158:	48 b8 63 72 65 61 74 	movabs $0x7320657461657263,%rax
  40215f:	65 20 73 
  402162:	49 89 47 18          	mov    %rax,0x18(%r15)
  402166:	41 c7 47 20 6f 63 6b 	movl   $0x656b636f,0x20(%r15)
  40216d:	65 
  40216e:	66 41 c7 47 24 74 00 	movw   $0x74,0x24(%r15)
  402175:	b8 ff ff ff ff       	mov    $0xffffffff,%eax
  40217a:	e9 12 06 00 00       	jmpq   402791 <submitr+0x6ce>
  40217f:	41 89 c4             	mov    %eax,%r12d
  402182:	4c 89 ef             	mov    %r13,%rdi
  402185:	e8 76 eb ff ff       	callq  400d00 <gethostbyname@plt>
  40218a:	48 85 c0             	test   %rax,%rax
  40218d:	75 6b                	jne    4021fa <submitr+0x137>
  40218f:	48 b8 45 72 72 6f 72 	movabs $0x44203a726f727245,%rax
  402196:	3a 20 44 
  402199:	49 89 07             	mov    %rax,(%r15)
  40219c:	48 b8 4e 53 20 69 73 	movabs $0x6e7520736920534e,%rax
  4021a3:	20 75 6e 
  4021a6:	49 89 47 08          	mov    %rax,0x8(%r15)
  4021aa:	48 b8 61 62 6c 65 20 	movabs $0x206f7420656c6261,%rax
  4021b1:	74 6f 20 
  4021b4:	49 89 47 10          	mov    %rax,0x10(%r15)
  4021b8:	48 b8 72 65 73 6f 6c 	movabs $0x2065766c6f736572,%rax
  4021bf:	76 65 20 
  4021c2:	49 89 47 18          	mov    %rax,0x18(%r15)
  4021c6:	48 b8 73 65 72 76 65 	movabs $0x6120726576726573,%rax
  4021cd:	72 20 61 
  4021d0:	49 89 47 20          	mov    %rax,0x20(%r15)
  4021d4:	41 c7 47 28 64 64 72 	movl   $0x65726464,0x28(%r15)
  4021db:	65 
  4021dc:	66 41 c7 47 2c 73 73 	movw   $0x7373,0x2c(%r15)
  4021e3:	41 c6 47 2e 00       	movb   $0x0,0x2e(%r15)
  4021e8:	44 89 e7             	mov    %r12d,%edi
  4021eb:	e8 b0 ea ff ff       	callq  400ca0 <close@plt>
  4021f0:	b8 ff ff ff ff       	mov    $0xffffffff,%eax
  4021f5:	e9 97 05 00 00       	jmpq   402791 <submitr+0x6ce>
  4021fa:	48 c7 44 24 30 00 00 	movq   $0x0,0x30(%rsp)
  402201:	00 00 
  402203:	48 c7 44 24 38 00 00 	movq   $0x0,0x38(%rsp)
  40220a:	00 00 
  40220c:	66 c7 44 24 30 02 00 	movw   $0x2,0x30(%rsp)
  402213:	48 63 50 14          	movslq 0x14(%rax),%rdx
  402217:	48 8b 40 18          	mov    0x18(%rax),%rax
  40221b:	48 8d 7c 24 34       	lea    0x34(%rsp),%rdi
  402220:	b9 0c 00 00 00       	mov    $0xc,%ecx
  402225:	48 8b 30             	mov    (%rax),%rsi
  402228:	e8 e3 ea ff ff       	callq  400d10 <__memmove_chk@plt>
  40222d:	66 c1 cd 08          	ror    $0x8,%bp
  402231:	66 89 6c 24 32       	mov    %bp,0x32(%rsp)
  402236:	ba 10 00 00 00       	mov    $0x10,%edx
  40223b:	48 8d 74 24 30       	lea    0x30(%rsp),%rsi
  402240:	44 89 e7             	mov    %r12d,%edi
  402243:	e8 58 eb ff ff       	callq  400da0 <connect@plt>
  402248:	85 c0                	test   %eax,%eax
  40224a:	79 5d                	jns    4022a9 <submitr+0x1e6>
  40224c:	48 b8 45 72 72 6f 72 	movabs $0x55203a726f727245,%rax
  402253:	3a 20 55 
  402256:	49 89 07             	mov    %rax,(%r15)
  402259:	48 b8 6e 61 62 6c 65 	movabs $0x6f7420656c62616e,%rax
  402260:	20 74 6f 
  402263:	49 89 47 08          	mov    %rax,0x8(%r15)
  402267:	48 b8 20 63 6f 6e 6e 	movabs $0x7463656e6e6f6320,%rax
  40226e:	65 63 74 
  402271:	49 89 47 10          	mov    %rax,0x10(%r15)
  402275:	48 b8 20 74 6f 20 74 	movabs $0x20656874206f7420,%rax
  40227c:	68 65 20 
  40227f:	49 89 47 18          	mov    %rax,0x18(%r15)
  402283:	41 c7 47 20 73 65 72 	movl   $0x76726573,0x20(%r15)
  40228a:	76 
  40228b:	66 41 c7 47 24 65 72 	movw   $0x7265,0x24(%r15)
  402292:	41 c6 47 26 00       	movb   $0x0,0x26(%r15)
  402297:	44 89 e7             	mov    %r12d,%edi
  40229a:	e8 01 ea ff ff       	callq  400ca0 <close@plt>
  40229f:	b8 ff ff ff ff       	mov    $0xffffffff,%eax
  4022a4:	e9 e8 04 00 00       	jmpq   402791 <submitr+0x6ce>
  4022a9:	49 c7 c1 ff ff ff ff 	mov    $0xffffffffffffffff,%r9
  4022b0:	b8 00 00 00 00       	mov    $0x0,%eax
  4022b5:	4c 89 c9             	mov    %r9,%rcx
  4022b8:	48 89 df             	mov    %rbx,%rdi
  4022bb:	f2 ae                	repnz scas %es:(%rdi),%al
  4022bd:	48 f7 d1             	not    %rcx
  4022c0:	48 89 ce             	mov    %rcx,%rsi
  4022c3:	4c 89 c9             	mov    %r9,%rcx
  4022c6:	48 8b 3c 24          	mov    (%rsp),%rdi
  4022ca:	f2 ae                	repnz scas %es:(%rdi),%al
  4022cc:	49 89 c8             	mov    %rcx,%r8
  4022cf:	4c 89 c9             	mov    %r9,%rcx
  4022d2:	48 8b 7c 24 08       	mov    0x8(%rsp),%rdi
  4022d7:	f2 ae                	repnz scas %es:(%rdi),%al
  4022d9:	48 f7 d1             	not    %rcx
  4022dc:	48 89 ca             	mov    %rcx,%rdx
  4022df:	4c 89 c9             	mov    %r9,%rcx
  4022e2:	48 8b 7c 24 10       	mov    0x10(%rsp),%rdi
  4022e7:	f2 ae                	repnz scas %es:(%rdi),%al
  4022e9:	4c 29 c2             	sub    %r8,%rdx
  4022ec:	48 29 ca             	sub    %rcx,%rdx
  4022ef:	48 8d 44 76 fd       	lea    -0x3(%rsi,%rsi,2),%rax
  4022f4:	48 8d 44 02 7b       	lea    0x7b(%rdx,%rax,1),%rax
  4022f9:	48 3d 00 20 00 00    	cmp    $0x2000,%rax
  4022ff:	76 73                	jbe    402374 <submitr+0x2b1>
  402301:	48 b8 45 72 72 6f 72 	movabs $0x52203a726f727245,%rax
  402308:	3a 20 52 
  40230b:	49 89 07             	mov    %rax,(%r15)
  40230e:	48 b8 65 73 75 6c 74 	movabs $0x747320746c757365,%rax
  402315:	20 73 74 
  402318:	49 89 47 08          	mov    %rax,0x8(%r15)
  40231c:	48 b8 72 69 6e 67 20 	movabs $0x6f6f7420676e6972,%rax
  402323:	74 6f 6f 
  402326:	49 89 47 10          	mov    %rax,0x10(%r15)
  40232a:	48 b8 20 6c 61 72 67 	movabs $0x202e656772616c20,%rax
  402331:	65 2e 20 
  402334:	49 89 47 18          	mov    %rax,0x18(%r15)
  402338:	48 b8 49 6e 63 72 65 	movabs $0x6573616572636e49,%rax
  40233f:	61 73 65 
  402342:	49 89 47 20          	mov    %rax,0x20(%r15)
  402346:	48 b8 20 53 55 42 4d 	movabs $0x5254494d42555320,%rax
  40234d:	49 54 52 
  402350:	49 89 47 28          	mov    %rax,0x28(%r15)
  402354:	48 b8 5f 4d 41 58 42 	movabs $0x46554258414d5f,%rax
  40235b:	55 46 00 
  40235e:	49 89 47 30          	mov    %rax,0x30(%r15)
  402362:	44 89 e7             	mov    %r12d,%edi
  402365:	e8 36 e9 ff ff       	callq  400ca0 <close@plt>
  40236a:	b8 ff ff ff ff       	mov    $0xffffffff,%eax
  40236f:	e9 1d 04 00 00       	jmpq   402791 <submitr+0x6ce>
  402374:	48 8d 94 24 50 40 00 	lea    0x4050(%rsp),%rdx
  40237b:	00 
  40237c:	b9 00 04 00 00       	mov    $0x400,%ecx
  402381:	b8 00 00 00 00       	mov    $0x0,%eax
  402386:	48 89 d7             	mov    %rdx,%rdi
  402389:	f3 48 ab             	rep stos %rax,%es:(%rdi)
  40238c:	48 c7 c1 ff ff ff ff 	mov    $0xffffffffffffffff,%rcx
  402393:	48 89 df             	mov    %rbx,%rdi
  402396:	f2 ae                	repnz scas %es:(%rdi),%al
  402398:	48 89 c8             	mov    %rcx,%rax
  40239b:	48 f7 d0             	not    %rax
  40239e:	48 83 e8 01          	sub    $0x1,%rax
  4023a2:	85 c0                	test   %eax,%eax
  4023a4:	0f 84 90 04 00 00    	je     40283a <submitr+0x777>
  4023aa:	8d 40 ff             	lea    -0x1(%rax),%eax
  4023ad:	4c 8d 74 03 01       	lea    0x1(%rbx,%rax,1),%r14
  4023b2:	48 89 d5             	mov    %rdx,%rbp
  4023b5:	49 bd d9 ff 00 00 00 	movabs $0x2000000000ffd9,%r13
  4023bc:	00 20 00 
  4023bf:	44 0f b6 03          	movzbl (%rbx),%r8d
  4023c3:	41 8d 40 d6          	lea    -0x2a(%r8),%eax
  4023c7:	3c 35                	cmp    $0x35,%al
  4023c9:	77 06                	ja     4023d1 <submitr+0x30e>
  4023cb:	49 0f a3 c5          	bt     %rax,%r13
  4023cf:	72 0d                	jb     4023de <submitr+0x31b>
  4023d1:	44 89 c0             	mov    %r8d,%eax
  4023d4:	83 e0 df             	and    $0xffffffdf,%eax
  4023d7:	83 e8 41             	sub    $0x41,%eax
  4023da:	3c 19                	cmp    $0x19,%al
  4023dc:	77 0a                	ja     4023e8 <submitr+0x325>
  4023de:	44 88 45 00          	mov    %r8b,0x0(%rbp)
  4023e2:	48 8d 6d 01          	lea    0x1(%rbp),%rbp
  4023e6:	eb 6c                	jmp    402454 <submitr+0x391>
  4023e8:	41 80 f8 20          	cmp    $0x20,%r8b
  4023ec:	75 0a                	jne    4023f8 <submitr+0x335>
  4023ee:	c6 45 00 2b          	movb   $0x2b,0x0(%rbp)
  4023f2:	48 8d 6d 01          	lea    0x1(%rbp),%rbp
  4023f6:	eb 5c                	jmp    402454 <submitr+0x391>
  4023f8:	41 8d 40 e0          	lea    -0x20(%r8),%eax
  4023fc:	3c 5f                	cmp    $0x5f,%al
  4023fe:	76 0a                	jbe    40240a <submitr+0x347>
  402400:	41 80 f8 09          	cmp    $0x9,%r8b
  402404:	0f 85 a3 03 00 00    	jne    4027ad <submitr+0x6ea>
  40240a:	45 0f b6 c0          	movzbl %r8b,%r8d
  40240e:	b9 38 36 40 00       	mov    $0x403638,%ecx
  402413:	ba 08 00 00 00       	mov    $0x8,%edx
  402418:	be 01 00 00 00       	mov    $0x1,%esi
  40241d:	48 8d bc 24 50 80 00 	lea    0x8050(%rsp),%rdi
  402424:	00 
  402425:	b8 00 00 00 00       	mov    $0x0,%eax
  40242a:	e8 c1 e9 ff ff       	callq  400df0 <__sprintf_chk@plt>
  40242f:	0f b6 84 24 50 80 00 	movzbl 0x8050(%rsp),%eax
  402436:	00 
  402437:	88 45 00             	mov    %al,0x0(%rbp)
  40243a:	0f b6 84 24 51 80 00 	movzbl 0x8051(%rsp),%eax
  402441:	00 
  402442:	88 45 01             	mov    %al,0x1(%rbp)
  402445:	0f b6 84 24 52 80 00 	movzbl 0x8052(%rsp),%eax
  40244c:	00 
  40244d:	88 45 02             	mov    %al,0x2(%rbp)
  402450:	48 8d 6d 03          	lea    0x3(%rbp),%rbp
  402454:	48 83 c3 01          	add    $0x1,%rbx
  402458:	49 39 de             	cmp    %rbx,%r14
  40245b:	0f 85 5e ff ff ff    	jne    4023bf <submitr+0x2fc>
  402461:	e9 d4 03 00 00       	jmpq   40283a <submitr+0x777>
  402466:	48 89 da             	mov    %rbx,%rdx
  402469:	48 89 ee             	mov    %rbp,%rsi
  40246c:	44 89 e7             	mov    %r12d,%edi
  40246f:	e8 ec e7 ff ff       	callq  400c60 <write@plt>
  402474:	48 85 c0             	test   %rax,%rax
  402477:	7f 0f                	jg     402488 <submitr+0x3c5>
  402479:	e8 b2 e7 ff ff       	callq  400c30 <__errno_location@plt>
  40247e:	83 38 04             	cmpl   $0x4,(%rax)
  402481:	75 12                	jne    402495 <submitr+0x3d2>
  402483:	b8 00 00 00 00       	mov    $0x0,%eax
  402488:	48 01 c5             	add    %rax,%rbp
  40248b:	48 29 c3             	sub    %rax,%rbx
  40248e:	75 d6                	jne    402466 <submitr+0x3a3>
  402490:	4d 85 ed             	test   %r13,%r13
  402493:	79 5f                	jns    4024f4 <submitr+0x431>
  402495:	48 b8 45 72 72 6f 72 	movabs $0x43203a726f727245,%rax
  40249c:	3a 20 43 
  40249f:	49 89 07             	mov    %rax,(%r15)
  4024a2:	48 b8 6c 69 65 6e 74 	movabs $0x6e7520746e65696c,%rax
  4024a9:	20 75 6e 
  4024ac:	49 89 47 08          	mov    %rax,0x8(%r15)
  4024b0:	48 b8 61 62 6c 65 20 	movabs $0x206f7420656c6261,%rax
  4024b7:	74 6f 20 
  4024ba:	49 89 47 10          	mov    %rax,0x10(%r15)
  4024be:	48 b8 77 72 69 74 65 	movabs $0x6f74206574697277,%rax
  4024c5:	20 74 6f 
  4024c8:	49 89 47 18          	mov    %rax,0x18(%r15)
  4024cc:	48 b8 20 74 68 65 20 	movabs $0x7265732065687420,%rax
  4024d3:	73 65 72 
  4024d6:	49 89 47 20          	mov    %rax,0x20(%r15)
  4024da:	41 c7 47 28 76 65 72 	movl   $0x726576,0x28(%r15)
  4024e1:	00 
  4024e2:	44 89 e7             	mov    %r12d,%edi
  4024e5:	e8 b6 e7 ff ff       	callq  400ca0 <close@plt>
  4024ea:	b8 ff ff ff ff       	mov    $0xffffffff,%eax
  4024ef:	e9 9d 02 00 00       	jmpq   402791 <submitr+0x6ce>
  4024f4:	44 89 64 24 40       	mov    %r12d,0x40(%rsp)
  4024f9:	c7 44 24 44 00 00 00 	movl   $0x0,0x44(%rsp)
  402500:	00 
  402501:	48 8d 44 24 50       	lea    0x50(%rsp),%rax
  402506:	48 89 44 24 48       	mov    %rax,0x48(%rsp)
  40250b:	ba 00 20 00 00       	mov    $0x2000,%edx
  402510:	48 8d b4 24 50 20 00 	lea    0x2050(%rsp),%rsi
  402517:	00 
  402518:	48 8d 7c 24 40       	lea    0x40(%rsp),%rdi
  40251d:	e8 af fa ff ff       	callq  401fd1 <rio_readlineb>
  402522:	48 85 c0             	test   %rax,%rax
  402525:	7f 74                	jg     40259b <submitr+0x4d8>
  402527:	48 b8 45 72 72 6f 72 	movabs $0x43203a726f727245,%rax
  40252e:	3a 20 43 
  402531:	49 89 07             	mov    %rax,(%r15)
  402534:	48 b8 6c 69 65 6e 74 	movabs $0x6e7520746e65696c,%rax
  40253b:	20 75 6e 
  40253e:	49 89 47 08          	mov    %rax,0x8(%r15)
  402542:	48 b8 61 62 6c 65 20 	movabs $0x206f7420656c6261,%rax
  402549:	74 6f 20 
  40254c:	49 89 47 10          	mov    %rax,0x10(%r15)
  402550:	48 b8 72 65 61 64 20 	movabs $0x7269662064616572,%rax
  402557:	66 69 72 
  40255a:	49 89 47 18          	mov    %rax,0x18(%r15)
  40255e:	48 b8 73 74 20 68 65 	movabs $0x6564616568207473,%rax
  402565:	61 64 65 
  402568:	49 89 47 20          	mov    %rax,0x20(%r15)
  40256c:	48 b8 72 20 66 72 6f 	movabs $0x73206d6f72662072,%rax
  402573:	6d 20 73 
  402576:	49 89 47 28          	mov    %rax,0x28(%r15)
  40257a:	41 c7 47 30 65 72 76 	movl   $0x65767265,0x30(%r15)
  402581:	65 
  402582:	66 41 c7 47 34 72 00 	movw   $0x72,0x34(%r15)
  402589:	44 89 e7             	mov    %r12d,%edi
  40258c:	e8 0f e7 ff ff       	callq  400ca0 <close@plt>
  402591:	b8 ff ff ff ff       	mov    $0xffffffff,%eax
  402596:	e9 f6 01 00 00       	jmpq   402791 <submitr+0x6ce>
  40259b:	4c 8d 84 24 50 80 00 	lea    0x8050(%rsp),%r8
  4025a2:	00 
  4025a3:	48 8d 4c 24 2c       	lea    0x2c(%rsp),%rcx
  4025a8:	48 8d 94 24 50 60 00 	lea    0x6050(%rsp),%rdx
  4025af:	00 
  4025b0:	be 3f 36 40 00       	mov    $0x40363f,%esi
  4025b5:	48 8d bc 24 50 20 00 	lea    0x2050(%rsp),%rdi
  4025bc:	00 
  4025bd:	b8 00 00 00 00       	mov    $0x0,%eax
  4025c2:	e8 89 e7 ff ff       	callq  400d50 <__isoc99_sscanf@plt>
  4025c7:	44 8b 44 24 2c       	mov    0x2c(%rsp),%r8d
  4025cc:	41 81 f8 c8 00 00 00 	cmp    $0xc8,%r8d
  4025d3:	0f 84 be 00 00 00    	je     402697 <submitr+0x5d4>
  4025d9:	4c 8d 8c 24 50 80 00 	lea    0x8050(%rsp),%r9
  4025e0:	00 
  4025e1:	b9 88 35 40 00       	mov    $0x403588,%ecx
  4025e6:	48 c7 c2 ff ff ff ff 	mov    $0xffffffffffffffff,%rdx
  4025ed:	be 01 00 00 00       	mov    $0x1,%esi
  4025f2:	4c 89 ff             	mov    %r15,%rdi
  4025f5:	b8 00 00 00 00       	mov    $0x0,%eax
  4025fa:	e8 f1 e7 ff ff       	callq  400df0 <__sprintf_chk@plt>
  4025ff:	44 89 e7             	mov    %r12d,%edi
  402602:	e8 99 e6 ff ff       	callq  400ca0 <close@plt>
  402607:	b8 ff ff ff ff       	mov    $0xffffffff,%eax
  40260c:	e9 80 01 00 00       	jmpq   402791 <submitr+0x6ce>
  402611:	ba 00 20 00 00       	mov    $0x2000,%edx
  402616:	48 8d b4 24 50 20 00 	lea    0x2050(%rsp),%rsi
  40261d:	00 
  40261e:	48 8d 7c 24 40       	lea    0x40(%rsp),%rdi
  402623:	e8 a9 f9 ff ff       	callq  401fd1 <rio_readlineb>
  402628:	48 85 c0             	test   %rax,%rax
  40262b:	7f 6a                	jg     402697 <submitr+0x5d4>
  40262d:	48 b8 45 72 72 6f 72 	movabs $0x43203a726f727245,%rax
  402634:	3a 20 43 
  402637:	49 89 07             	mov    %rax,(%r15)
  40263a:	48 b8 6c 69 65 6e 74 	movabs $0x6e7520746e65696c,%rax
  402641:	20 75 6e 
  402644:	49 89 47 08          	mov    %rax,0x8(%r15)
  402648:	48 b8 61 62 6c 65 20 	movabs $0x206f7420656c6261,%rax
  40264f:	74 6f 20 
  402652:	49 89 47 10          	mov    %rax,0x10(%r15)
  402656:	48 b8 72 65 61 64 20 	movabs $0x6165682064616572,%rax
  40265d:	68 65 61 
  402660:	49 89 47 18          	mov    %rax,0x18(%r15)
  402664:	48 b8 64 65 72 73 20 	movabs $0x6f72662073726564,%rax
  40266b:	66 72 6f 
  40266e:	49 89 47 20          	mov    %rax,0x20(%r15)
  402672:	48 b8 6d 20 73 65 72 	movabs $0x726576726573206d,%rax
  402679:	76 65 72 
  40267c:	49 89 47 28          	mov    %rax,0x28(%r15)
  402680:	41 c6 47 30 00       	movb   $0x0,0x30(%r15)
  402685:	44 89 e7             	mov    %r12d,%edi
  402688:	e8 13 e6 ff ff       	callq  400ca0 <close@plt>
  40268d:	b8 ff ff ff ff       	mov    $0xffffffff,%eax
  402692:	e9 fa 00 00 00       	jmpq   402791 <submitr+0x6ce>
  402697:	80 bc 24 50 20 00 00 	cmpb   $0xd,0x2050(%rsp)
  40269e:	0d 
  40269f:	0f 85 6c ff ff ff    	jne    402611 <submitr+0x54e>
  4026a5:	80 bc 24 51 20 00 00 	cmpb   $0xa,0x2051(%rsp)
  4026ac:	0a 
  4026ad:	0f 85 5e ff ff ff    	jne    402611 <submitr+0x54e>
  4026b3:	80 bc 24 52 20 00 00 	cmpb   $0x0,0x2052(%rsp)
  4026ba:	00 
  4026bb:	0f 85 50 ff ff ff    	jne    402611 <submitr+0x54e>
  4026c1:	ba 00 20 00 00       	mov    $0x2000,%edx
  4026c6:	48 8d b4 24 50 20 00 	lea    0x2050(%rsp),%rsi
  4026cd:	00 
  4026ce:	48 8d 7c 24 40       	lea    0x40(%rsp),%rdi
  4026d3:	e8 f9 f8 ff ff       	callq  401fd1 <rio_readlineb>
  4026d8:	48 85 c0             	test   %rax,%rax
  4026db:	7f 70                	jg     40274d <submitr+0x68a>
  4026dd:	48 b8 45 72 72 6f 72 	movabs $0x43203a726f727245,%rax
  4026e4:	3a 20 43 
  4026e7:	49 89 07             	mov    %rax,(%r15)
  4026ea:	48 b8 6c 69 65 6e 74 	movabs $0x6e7520746e65696c,%rax
  4026f1:	20 75 6e 
  4026f4:	49 89 47 08          	mov    %rax,0x8(%r15)
  4026f8:	48 b8 61 62 6c 65 20 	movabs $0x206f7420656c6261,%rax
  4026ff:	74 6f 20 
  402702:	49 89 47 10          	mov    %rax,0x10(%r15)
  402706:	48 b8 72 65 61 64 20 	movabs $0x6174732064616572,%rax
  40270d:	73 74 61 
  402710:	49 89 47 18          	mov    %rax,0x18(%r15)
  402714:	48 b8 74 75 73 20 6d 	movabs $0x7373656d20737574,%rax
  40271b:	65 73 73 
  40271e:	49 89 47 20          	mov    %rax,0x20(%r15)
  402722:	48 b8 61 67 65 20 66 	movabs $0x6d6f726620656761,%rax
  402729:	72 6f 6d 
  40272c:	49 89 47 28          	mov    %rax,0x28(%r15)
  402730:	48 b8 20 73 65 72 76 	movabs $0x72657672657320,%rax
  402737:	65 72 00 
  40273a:	49 89 47 30          	mov    %rax,0x30(%r15)
  40273e:	44 89 e7             	mov    %r12d,%edi
  402741:	e8 5a e5 ff ff       	callq  400ca0 <close@plt>
  402746:	b8 ff ff ff ff       	mov    $0xffffffff,%eax
  40274b:	eb 44                	jmp    402791 <submitr+0x6ce>
  40274d:	48 8d b4 24 50 20 00 	lea    0x2050(%rsp),%rsi
  402754:	00 
  402755:	4c 89 ff             	mov    %r15,%rdi
  402758:	e8 e3 e4 ff ff       	callq  400c40 <strcpy@plt>
  40275d:	44 89 e7             	mov    %r12d,%edi
  402760:	e8 3b e5 ff ff       	callq  400ca0 <close@plt>
  402765:	41 0f b6 17          	movzbl (%r15),%edx
  402769:	b8 4f 00 00 00       	mov    $0x4f,%eax
  40276e:	29 d0                	sub    %edx,%eax
  402770:	75 15                	jne    402787 <submitr+0x6c4>
  402772:	41 0f b6 57 01       	movzbl 0x1(%r15),%edx
  402777:	b8 4b 00 00 00       	mov    $0x4b,%eax
  40277c:	29 d0                	sub    %edx,%eax
  40277e:	75 07                	jne    402787 <submitr+0x6c4>
  402780:	41 0f b6 47 02       	movzbl 0x2(%r15),%eax
  402785:	f7 d8                	neg    %eax
  402787:	85 c0                	test   %eax,%eax
  402789:	0f 95 c0             	setne  %al
  40278c:	0f b6 c0             	movzbl %al,%eax
  40278f:	f7 d8                	neg    %eax
  402791:	48 8b 8c 24 58 a0 00 	mov    0xa058(%rsp),%rcx
  402798:	00 
  402799:	64 48 33 0c 25 28 00 	xor    %fs:0x28,%rcx
  4027a0:	00 00 
  4027a2:	0f 84 12 01 00 00    	je     4028ba <submitr+0x7f7>
  4027a8:	e9 08 01 00 00       	jmpq   4028b5 <submitr+0x7f2>
  4027ad:	48 b8 45 72 72 6f 72 	movabs $0x52203a726f727245,%rax
  4027b4:	3a 20 52 
  4027b7:	49 89 07             	mov    %rax,(%r15)
  4027ba:	48 b8 65 73 75 6c 74 	movabs $0x747320746c757365,%rax
  4027c1:	20 73 74 
  4027c4:	49 89 47 08          	mov    %rax,0x8(%r15)
  4027c8:	48 b8 72 69 6e 67 20 	movabs $0x6e6f6320676e6972,%rax
  4027cf:	63 6f 6e 
  4027d2:	49 89 47 10          	mov    %rax,0x10(%r15)
  4027d6:	48 b8 74 61 69 6e 73 	movabs $0x6e6120736e696174,%rax
  4027dd:	20 61 6e 
  4027e0:	49 89 47 18          	mov    %rax,0x18(%r15)
  4027e4:	48 b8 20 69 6c 6c 65 	movabs $0x6c6167656c6c6920,%rax
  4027eb:	67 61 6c 
  4027ee:	49 89 47 20          	mov    %rax,0x20(%r15)
  4027f2:	48 b8 20 6f 72 20 75 	movabs $0x72706e7520726f20,%rax
  4027f9:	6e 70 72 
  4027fc:	49 89 47 28          	mov    %rax,0x28(%r15)
  402800:	48 b8 69 6e 74 61 62 	movabs $0x20656c6261746e69,%rax
  402807:	6c 65 20 
  40280a:	49 89 47 30          	mov    %rax,0x30(%r15)
  40280e:	48 b8 63 68 61 72 61 	movabs $0x6574636172616863,%rax
  402815:	63 74 65 
  402818:	49 89 47 38          	mov    %rax,0x38(%r15)
  40281c:	66 41 c7 47 40 72 2e 	movw   $0x2e72,0x40(%r15)
  402823:	41 c6 47 42 00       	movb   $0x0,0x42(%r15)
  402828:	44 89 e7             	mov    %r12d,%edi
  40282b:	e8 70 e4 ff ff       	callq  400ca0 <close@plt>
  402830:	b8 ff ff ff ff       	mov    $0xffffffff,%eax
  402835:	e9 57 ff ff ff       	jmpq   402791 <submitr+0x6ce>
  40283a:	48 8d 9c 24 50 20 00 	lea    0x2050(%rsp),%rbx
  402841:	00 
  402842:	48 83 ec 08          	sub    $0x8,%rsp
  402846:	48 8d 84 24 58 40 00 	lea    0x4058(%rsp),%rax
  40284d:	00 
  40284e:	50                   	push   %rax
  40284f:	ff 74 24 20          	pushq  0x20(%rsp)
  402853:	ff 74 24 30          	pushq  0x30(%rsp)
  402857:	4c 8b 4c 24 28       	mov    0x28(%rsp),%r9
  40285c:	4c 8b 44 24 20       	mov    0x20(%rsp),%r8
  402861:	b9 b8 35 40 00       	mov    $0x4035b8,%ecx
  402866:	ba 00 20 00 00       	mov    $0x2000,%edx
  40286b:	be 01 00 00 00       	mov    $0x1,%esi
  402870:	48 89 df             	mov    %rbx,%rdi
  402873:	b8 00 00 00 00       	mov    $0x0,%eax
  402878:	e8 73 e5 ff ff       	callq  400df0 <__sprintf_chk@plt>
  40287d:	b8 00 00 00 00       	mov    $0x0,%eax
  402882:	48 c7 c1 ff ff ff ff 	mov    $0xffffffffffffffff,%rcx
  402889:	48 89 df             	mov    %rbx,%rdi
  40288c:	f2 ae                	repnz scas %es:(%rdi),%al
  40288e:	48 89 c8             	mov    %rcx,%rax
  402891:	48 f7 d0             	not    %rax
  402894:	4c 8d 68 ff          	lea    -0x1(%rax),%r13
  402898:	48 83 c4 20          	add    $0x20,%rsp
  40289c:	4c 89 eb             	mov    %r13,%rbx
  40289f:	48 8d ac 24 50 20 00 	lea    0x2050(%rsp),%rbp
  4028a6:	00 
  4028a7:	4d 85 ed             	test   %r13,%r13
  4028aa:	0f 85 b6 fb ff ff    	jne    402466 <submitr+0x3a3>
  4028b0:	e9 3f fc ff ff       	jmpq   4024f4 <submitr+0x431>
  4028b5:	e8 c6 e3 ff ff       	callq  400c80 <__stack_chk_fail@plt>
  4028ba:	48 81 c4 68 a0 00 00 	add    $0xa068,%rsp
  4028c1:	5b                   	pop    %rbx
  4028c2:	5d                   	pop    %rbp
  4028c3:	41 5c                	pop    %r12
  4028c5:	41 5d                	pop    %r13
  4028c7:	41 5e                	pop    %r14
  4028c9:	41 5f                	pop    %r15
  4028cb:	c3                   	retq   

00000000004028cc <init_timeout>:
  4028cc:	85 ff                	test   %edi,%edi
  4028ce:	74 22                	je     4028f2 <init_timeout+0x26>
  4028d0:	53                   	push   %rbx
  4028d1:	89 fb                	mov    %edi,%ebx
  4028d3:	be a3 1f 40 00       	mov    $0x401fa3,%esi
  4028d8:	bf 0e 00 00 00       	mov    $0xe,%edi
  4028dd:	e8 0e e4 ff ff       	callq  400cf0 <signal@plt>
  4028e2:	85 db                	test   %ebx,%ebx
  4028e4:	bf 00 00 00 00       	mov    $0x0,%edi
  4028e9:	0f 49 fb             	cmovns %ebx,%edi
  4028ec:	e8 9f e3 ff ff       	callq  400c90 <alarm@plt>
  4028f1:	5b                   	pop    %rbx
  4028f2:	f3 c3                	repz retq 

00000000004028f4 <init_driver>:
  4028f4:	55                   	push   %rbp
  4028f5:	53                   	push   %rbx
  4028f6:	48 83 ec 28          	sub    $0x28,%rsp
  4028fa:	48 89 fd             	mov    %rdi,%rbp
  4028fd:	64 48 8b 04 25 28 00 	mov    %fs:0x28,%rax
  402904:	00 00 
  402906:	48 89 44 24 18       	mov    %rax,0x18(%rsp)
  40290b:	31 c0                	xor    %eax,%eax
  40290d:	be 01 00 00 00       	mov    $0x1,%esi
  402912:	bf 0d 00 00 00       	mov    $0xd,%edi
  402917:	e8 d4 e3 ff ff       	callq  400cf0 <signal@plt>
  40291c:	be 01 00 00 00       	mov    $0x1,%esi
  402921:	bf 1d 00 00 00       	mov    $0x1d,%edi
  402926:	e8 c5 e3 ff ff       	callq  400cf0 <signal@plt>
  40292b:	be 01 00 00 00       	mov    $0x1,%esi
  402930:	bf 1d 00 00 00       	mov    $0x1d,%edi
  402935:	e8 b6 e3 ff ff       	callq  400cf0 <signal@plt>
  40293a:	ba 00 00 00 00       	mov    $0x0,%edx
  40293f:	be 01 00 00 00       	mov    $0x1,%esi
  402944:	bf 02 00 00 00       	mov    $0x2,%edi
  402949:	e8 b2 e4 ff ff       	callq  400e00 <socket@plt>
  40294e:	85 c0                	test   %eax,%eax
  402950:	79 4f                	jns    4029a1 <init_driver+0xad>
  402952:	48 b8 45 72 72 6f 72 	movabs $0x43203a726f727245,%rax
  402959:	3a 20 43 
  40295c:	48 89 45 00          	mov    %rax,0x0(%rbp)
  402960:	48 b8 6c 69 65 6e 74 	movabs $0x6e7520746e65696c,%rax
  402967:	20 75 6e 
  40296a:	48 89 45 08          	mov    %rax,0x8(%rbp)
  40296e:	48 b8 61 62 6c 65 20 	movabs $0x206f7420656c6261,%rax
  402975:	74 6f 20 
  402978:	48 89 45 10          	mov    %rax,0x10(%rbp)
  40297c:	48 b8 63 72 65 61 74 	movabs $0x7320657461657263,%rax
  402983:	65 20 73 
  402986:	48 89 45 18          	mov    %rax,0x18(%rbp)
  40298a:	c7 45 20 6f 63 6b 65 	movl   $0x656b636f,0x20(%rbp)
  402991:	66 c7 45 24 74 00    	movw   $0x74,0x24(%rbp)
  402997:	b8 ff ff ff ff       	mov    $0xffffffff,%eax
  40299c:	e9 0c 01 00 00       	jmpq   402aad <init_driver+0x1b9>
  4029a1:	89 c3                	mov    %eax,%ebx
  4029a3:	bf 7c 2f 40 00       	mov    $0x402f7c,%edi
  4029a8:	e8 53 e3 ff ff       	callq  400d00 <gethostbyname@plt>
  4029ad:	48 85 c0             	test   %rax,%rax
  4029b0:	75 68                	jne    402a1a <init_driver+0x126>
  4029b2:	48 b8 45 72 72 6f 72 	movabs $0x44203a726f727245,%rax
  4029b9:	3a 20 44 
  4029bc:	48 89 45 00          	mov    %rax,0x0(%rbp)
  4029c0:	48 b8 4e 53 20 69 73 	movabs $0x6e7520736920534e,%rax
  4029c7:	20 75 6e 
  4029ca:	48 89 45 08          	mov    %rax,0x8(%rbp)
  4029ce:	48 b8 61 62 6c 65 20 	movabs $0x206f7420656c6261,%rax
  4029d5:	74 6f 20 
  4029d8:	48 89 45 10          	mov    %rax,0x10(%rbp)
  4029dc:	48 b8 72 65 73 6f 6c 	movabs $0x2065766c6f736572,%rax
  4029e3:	76 65 20 
  4029e6:	48 89 45 18          	mov    %rax,0x18(%rbp)
  4029ea:	48 b8 73 65 72 76 65 	movabs $0x6120726576726573,%rax
  4029f1:	72 20 61 
  4029f4:	48 89 45 20          	mov    %rax,0x20(%rbp)
  4029f8:	c7 45 28 64 64 72 65 	movl   $0x65726464,0x28(%rbp)
  4029ff:	66 c7 45 2c 73 73    	movw   $0x7373,0x2c(%rbp)
  402a05:	c6 45 2e 00          	movb   $0x0,0x2e(%rbp)
  402a09:	89 df                	mov    %ebx,%edi
  402a0b:	e8 90 e2 ff ff       	callq  400ca0 <close@plt>
  402a10:	b8 ff ff ff ff       	mov    $0xffffffff,%eax
  402a15:	e9 93 00 00 00       	jmpq   402aad <init_driver+0x1b9>
  402a1a:	48 c7 04 24 00 00 00 	movq   $0x0,(%rsp)
  402a21:	00 
  402a22:	48 c7 44 24 08 00 00 	movq   $0x0,0x8(%rsp)
  402a29:	00 00 
  402a2b:	66 c7 04 24 02 00    	movw   $0x2,(%rsp)
  402a31:	48 63 50 14          	movslq 0x14(%rax),%rdx
  402a35:	48 8b 40 18          	mov    0x18(%rax),%rax
  402a39:	48 8d 7c 24 04       	lea    0x4(%rsp),%rdi
  402a3e:	b9 0c 00 00 00       	mov    $0xc,%ecx
  402a43:	48 8b 30             	mov    (%rax),%rsi
  402a46:	e8 c5 e2 ff ff       	callq  400d10 <__memmove_chk@plt>
  402a4b:	66 c7 44 24 02 3b 6e 	movw   $0x6e3b,0x2(%rsp)
  402a52:	ba 10 00 00 00       	mov    $0x10,%edx
  402a57:	48 89 e6             	mov    %rsp,%rsi
  402a5a:	89 df                	mov    %ebx,%edi
  402a5c:	e8 3f e3 ff ff       	callq  400da0 <connect@plt>
  402a61:	85 c0                	test   %eax,%eax
  402a63:	79 32                	jns    402a97 <init_driver+0x1a3>
  402a65:	41 b8 7c 2f 40 00    	mov    $0x402f7c,%r8d
  402a6b:	b9 10 36 40 00       	mov    $0x403610,%ecx
  402a70:	48 c7 c2 ff ff ff ff 	mov    $0xffffffffffffffff,%rdx
  402a77:	be 01 00 00 00       	mov    $0x1,%esi
  402a7c:	48 89 ef             	mov    %rbp,%rdi
  402a7f:	b8 00 00 00 00       	mov    $0x0,%eax
  402a84:	e8 67 e3 ff ff       	callq  400df0 <__sprintf_chk@plt>
  402a89:	89 df                	mov    %ebx,%edi
  402a8b:	e8 10 e2 ff ff       	callq  400ca0 <close@plt>
  402a90:	b8 ff ff ff ff       	mov    $0xffffffff,%eax
  402a95:	eb 16                	jmp    402aad <init_driver+0x1b9>
  402a97:	89 df                	mov    %ebx,%edi
  402a99:	e8 02 e2 ff ff       	callq  400ca0 <close@plt>
  402a9e:	66 c7 45 00 4f 4b    	movw   $0x4b4f,0x0(%rbp)
  402aa4:	c6 45 02 00          	movb   $0x0,0x2(%rbp)
  402aa8:	b8 00 00 00 00       	mov    $0x0,%eax
  402aad:	48 8b 4c 24 18       	mov    0x18(%rsp),%rcx
  402ab2:	64 48 33 0c 25 28 00 	xor    %fs:0x28,%rcx
  402ab9:	00 00 
  402abb:	74 05                	je     402ac2 <init_driver+0x1ce>
  402abd:	e8 be e1 ff ff       	callq  400c80 <__stack_chk_fail@plt>
  402ac2:	48 83 c4 28          	add    $0x28,%rsp
  402ac6:	5b                   	pop    %rbx
  402ac7:	5d                   	pop    %rbp
  402ac8:	c3                   	retq   

0000000000402ac9 <driver_post>:
  402ac9:	53                   	push   %rbx
  402aca:	4c 89 c3             	mov    %r8,%rbx
  402acd:	85 c9                	test   %ecx,%ecx
  402acf:	74 24                	je     402af5 <driver_post+0x2c>
  402ad1:	be 50 36 40 00       	mov    $0x403650,%esi
  402ad6:	bf 01 00 00 00       	mov    $0x1,%edi
  402adb:	b8 00 00 00 00       	mov    $0x0,%eax
  402ae0:	e8 7b e2 ff ff       	callq  400d60 <__printf_chk@plt>
  402ae5:	66 c7 03 4f 4b       	movw   $0x4b4f,(%rbx)
  402aea:	c6 43 02 00          	movb   $0x0,0x2(%rbx)
  402aee:	b8 00 00 00 00       	mov    $0x0,%eax
  402af3:	eb 41                	jmp    402b36 <driver_post+0x6d>
  402af5:	48 85 ff             	test   %rdi,%rdi
  402af8:	74 2e                	je     402b28 <driver_post+0x5f>
  402afa:	80 3f 00             	cmpb   $0x0,(%rdi)
  402afd:	74 29                	je     402b28 <driver_post+0x5f>
  402aff:	41 50                	push   %r8
  402b01:	52                   	push   %rdx
  402b02:	41 b9 67 36 40 00    	mov    $0x403667,%r9d
  402b08:	49 89 f0             	mov    %rsi,%r8
  402b0b:	48 89 f9             	mov    %rdi,%rcx
  402b0e:	ba 6b 36 40 00       	mov    $0x40366b,%edx
  402b13:	be 6e 3b 00 00       	mov    $0x3b6e,%esi
  402b18:	bf 7c 2f 40 00       	mov    $0x402f7c,%edi
  402b1d:	e8 a1 f5 ff ff       	callq  4020c3 <submitr>
  402b22:	48 83 c4 10          	add    $0x10,%rsp
  402b26:	eb 0e                	jmp    402b36 <driver_post+0x6d>
  402b28:	66 c7 03 4f 4b       	movw   $0x4b4f,(%rbx)
  402b2d:	c6 43 02 00          	movb   $0x0,0x2(%rbx)
  402b31:	b8 00 00 00 00       	mov    $0x0,%eax
  402b36:	5b                   	pop    %rbx
  402b37:	c3                   	retq   
  402b38:	0f 1f 84 00 00 00 00 	nopl   0x0(%rax,%rax,1)
  402b3f:	00 

0000000000402b40 <__libc_csu_init>:
  402b40:	41 57                	push   %r15
  402b42:	41 56                	push   %r14
  402b44:	41 89 ff             	mov    %edi,%r15d
  402b47:	41 55                	push   %r13
  402b49:	41 54                	push   %r12
  402b4b:	4c 8d 25 be 12 20 00 	lea    0x2012be(%rip),%r12        # 603e10 <__frame_dummy_init_array_entry>
  402b52:	55                   	push   %rbp
  402b53:	48 8d 2d be 12 20 00 	lea    0x2012be(%rip),%rbp        # 603e18 <__init_array_end>
  402b5a:	53                   	push   %rbx
  402b5b:	49 89 f6             	mov    %rsi,%r14
  402b5e:	49 89 d5             	mov    %rdx,%r13
  402b61:	4c 29 e5             	sub    %r12,%rbp
  402b64:	48 83 ec 08          	sub    $0x8,%rsp
  402b68:	48 c1 fd 03          	sar    $0x3,%rbp
  402b6c:	e8 6f e0 ff ff       	callq  400be0 <_init>
  402b71:	48 85 ed             	test   %rbp,%rbp
  402b74:	74 20                	je     402b96 <__libc_csu_init+0x56>
  402b76:	31 db                	xor    %ebx,%ebx
  402b78:	0f 1f 84 00 00 00 00 	nopl   0x0(%rax,%rax,1)
  402b7f:	00 
  402b80:	4c 89 ea             	mov    %r13,%rdx
  402b83:	4c 89 f6             	mov    %r14,%rsi
  402b86:	44 89 ff             	mov    %r15d,%edi
  402b89:	41 ff 14 dc          	callq  *(%r12,%rbx,8)
  402b8d:	48 83 c3 01          	add    $0x1,%rbx
  402b91:	48 39 eb             	cmp    %rbp,%rbx
  402b94:	75 ea                	jne    402b80 <__libc_csu_init+0x40>
  402b96:	48 83 c4 08          	add    $0x8,%rsp
  402b9a:	5b                   	pop    %rbx
  402b9b:	5d                   	pop    %rbp
  402b9c:	41 5c                	pop    %r12
  402b9e:	41 5d                	pop    %r13
  402ba0:	41 5e                	pop    %r14
  402ba2:	41 5f                	pop    %r15
  402ba4:	c3                   	retq   
  402ba5:	90                   	nop
  402ba6:	66 2e 0f 1f 84 00 00 	nopw   %cs:0x0(%rax,%rax,1)
  402bad:	00 00 00 

0000000000402bb0 <__libc_csu_fini>:
  402bb0:	f3 c3                	repz retq 

Disassembly of section .fini:

0000000000402bb4 <_fini>:
  402bb4:	48 83 ec 08          	sub    $0x8,%rsp
  402bb8:	48 83 c4 08          	add    $0x8,%rsp
  402bbc:	c3                   	retq   
